
FinalFromLab8.elf:     file format elf32-littlenios2
FinalFromLab8.elf
architecture: nios2:r1, flags 0x00000112:
EXEC_P, HAS_SYMS, D_PAGED
start address 0x02000230

Program Header:
    LOAD off    0x00001000 vaddr 0x02000000 paddr 0x02000000 align 2**12
         filesz 0x00000020 memsz 0x00000020 flags r-x
    LOAD off    0x00001020 vaddr 0x02000020 paddr 0x02000020 align 2**12
         filesz 0x00012478 memsz 0x00012478 flags r-x
    LOAD off    0x00013498 vaddr 0x02012498 paddr 0x02013f84 align 2**12
         filesz 0x00001aec memsz 0x00001aec flags rw-
    LOAD off    0x00015a70 vaddr 0x02015a70 paddr 0x02015a70 align 2**12
         filesz 0x00000000 memsz 0x00000164 flags rw-

Sections:
Idx Name          Size      VMA       LMA       File off  Algn
  0 .entry        00000020  02000000  02000000  00001000  2**5
                  CONTENTS, ALLOC, LOAD, READONLY, CODE
  1 .exceptions   00000210  02000020  02000020  00001020  2**2
                  CONTENTS, ALLOC, LOAD, READONLY, CODE
  2 .text         000117ec  02000230  02000230  00001230  2**2
                  CONTENTS, ALLOC, LOAD, READONLY, CODE
  3 .rodata       00000a7c  02011a1c  02011a1c  00012a1c  2**2
                  CONTENTS, ALLOC, LOAD, READONLY, DATA
  4 .rwdata       00001aec  02012498  02013f84  00013498  2**2
                  CONTENTS, ALLOC, LOAD, DATA, SMALL_DATA
  5 .bss          00000164  02015a70  02015a70  00015a70  2**2
                  ALLOC, SMALL_DATA
  6 .onchip_memory2_0 00000000  00000000  00000000  00014f84  2**0
                  CONTENTS
  7 .sdram        00000000  02015bd4  02015bd4  00014f84  2**0
                  CONTENTS
  8 .comment      00000023  00000000  00000000  00014f84  2**0
                  CONTENTS, READONLY
  9 .debug_aranges 00000f18  00000000  00000000  00014fa8  2**3
                  CONTENTS, READONLY, DEBUGGING
 10 .debug_info   00023743  00000000  00000000  00015ec0  2**0
                  CONTENTS, READONLY, DEBUGGING
 11 .debug_abbrev 000090c8  00000000  00000000  00039603  2**0
                  CONTENTS, READONLY, DEBUGGING
 12 .debug_line   0000b8a2  00000000  00000000  000426cb  2**0
                  CONTENTS, READONLY, DEBUGGING
 13 .debug_frame  00002384  00000000  00000000  0004df70  2**2
                  CONTENTS, READONLY, DEBUGGING
 14 .debug_str    00003a1d  00000000  00000000  000502f4  2**0
                  CONTENTS, READONLY, DEBUGGING
 15 .debug_loc    0001786c  00000000  00000000  00053d11  2**0
                  CONTENTS, READONLY, DEBUGGING
 16 .debug_alt_sim_info 00000040  00000000  00000000  0006b580  2**2
                  CONTENTS, READONLY, DEBUGGING
 17 .debug_ranges 000018d0  00000000  00000000  0006b5c0  2**3
                  CONTENTS, READONLY, DEBUGGING
 18 .thread_model 00000003  00000000  00000000  00070236  2**0
                  CONTENTS, READONLY
 19 .cpu          0000000c  00000000  00000000  00070239  2**0
                  CONTENTS, READONLY
 20 .qsys         00000001  00000000  00000000  00070245  2**0
                  CONTENTS, READONLY
 21 .simulation_enabled 00000001  00000000  00000000  00070246  2**0
                  CONTENTS, READONLY
 22 .sysid_hash   00000004  00000000  00000000  00070247  2**0
                  CONTENTS, READONLY
 23 .sysid_base   00000004  00000000  00000000  0007024b  2**0
                  CONTENTS, READONLY
 24 .sysid_time   00000004  00000000  00000000  0007024f  2**0
                  CONTENTS, READONLY
 25 .stderr_dev   0000000b  00000000  00000000  00070253  2**0
                  CONTENTS, READONLY
 26 .stdin_dev    0000000b  00000000  00000000  0007025e  2**0
                  CONTENTS, READONLY
 27 .stdout_dev   0000000b  00000000  00000000  00070269  2**0
                  CONTENTS, READONLY
 28 .sopc_system_name 00000008  00000000  00000000  00070274  2**0
                  CONTENTS, READONLY
 29 .quartus_project_dir 00000032  00000000  00000000  0007027c  2**0
                  CONTENTS, READONLY
 30 .jdi          0000518d  00000000  00000000  000702ae  2**0
                  CONTENTS, READONLY
 31 .sopcinfo     00072306  00000000  00000000  0007543b  2**0
                  CONTENTS, READONLY
SYMBOL TABLE:
02000000 l    d  .entry	00000000 .entry
02000020 l    d  .exceptions	00000000 .exceptions
02000230 l    d  .text	00000000 .text
02011a1c l    d  .rodata	00000000 .rodata
02012498 l    d  .rwdata	00000000 .rwdata
02015a70 l    d  .bss	00000000 .bss
00000000 l    d  .onchip_memory2_0	00000000 .onchip_memory2_0
02015bd4 l    d  .sdram	00000000 .sdram
00000000 l    d  .comment	00000000 .comment
00000000 l    d  .debug_aranges	00000000 .debug_aranges
00000000 l    d  .debug_info	00000000 .debug_info
00000000 l    d  .debug_abbrev	00000000 .debug_abbrev
00000000 l    d  .debug_line	00000000 .debug_line
00000000 l    d  .debug_frame	00000000 .debug_frame
00000000 l    d  .debug_str	00000000 .debug_str
00000000 l    d  .debug_loc	00000000 .debug_loc
00000000 l    d  .debug_alt_sim_info	00000000 .debug_alt_sim_info
00000000 l    d  .debug_ranges	00000000 .debug_ranges
00000000 l    df *ABS*	00000000 ../FinalFromLab8_bsp//obj/HAL/src/crt0.o
02000268 l       .text	00000000 alt_after_alt_main
00000000 l    df *ABS*	00000000 alt_irq_handler.c
00000000 l    df *ABS*	00000000 alt_instruction_exception_entry.c
00000000 l    df *ABS*	00000000 io_handler.c
00000000 l    df *ABS*	00000000 main.c
02015a70 l     O .bss	00000002 ctl_reg.3589
02015a72 l     O .bss	00000002 no_device.3590
00000000 l    df *ABS*	00000000 usb.c
00000000 l    df *ABS*	00000000 printf.c
00000000 l    df *ABS*	00000000 puts.c
00000000 l    df *ABS*	00000000 strlen.c
00000000 l    df *ABS*	00000000 vfprintf.c
020121de l     O .rodata	00000010 zeroes.4404
0200478c l     F .text	000000bc __sbprintf
020121ee l     O .rodata	00000010 blanks.4403
00000000 l    df *ABS*	00000000 wsetup.c
00000000 l    df *ABS*	00000000 dtoa.c
0200499c l     F .text	00000228 quorem
00000000 l    df *ABS*	00000000 fflush.c
00000000 l    df *ABS*	00000000 findfp.c
020064f4 l     F .text	00000008 __fp_unlock
02006508 l     F .text	0000019c __sinit.part.1
020066a4 l     F .text	00000008 __fp_lock
00000000 l    df *ABS*	00000000 mallocr.c
00000000 l    df *ABS*	00000000 fvwrite.c
00000000 l    df *ABS*	00000000 fwalk.c
00000000 l    df *ABS*	00000000 impure.c
02012498 l     O .rwdata	00000424 impure_data
00000000 l    df *ABS*	00000000 locale.c
020128dc l     O .rwdata	00000020 lc_ctype_charset
020128bc l     O .rwdata	00000020 lc_message_charset
020128fc l     O .rwdata	00000038 lconv
00000000 l    df *ABS*	00000000 makebuf.c
00000000 l    df *ABS*	00000000 mallocr.c
00000000 l    df *ABS*	00000000 memchr.c
00000000 l    df *ABS*	00000000 memcpy.c
00000000 l    df *ABS*	00000000 memmove.c
00000000 l    df *ABS*	00000000 memset.c
00000000 l    df *ABS*	00000000 mprec.c
02012220 l     O .rodata	0000000c p05.2768
00000000 l    df *ABS*	00000000 mallocr.c
00000000 l    df *ABS*	00000000 s_fpclassify.c
00000000 l    df *ABS*	00000000 sbrkr.c
00000000 l    df *ABS*	00000000 stdio.c
00000000 l    df *ABS*	00000000 strcmp.c
00000000 l    df *ABS*	00000000 vfprintf.c
02009b78 l     F .text	000000fc __sprint_r.part.0
02012344 l     O .rodata	00000010 zeroes.4349
0200b1b4 l     F .text	000000bc __sbprintf
02012354 l     O .rodata	00000010 blanks.4348
00000000 l    df *ABS*	00000000 writer.c
00000000 l    df *ABS*	00000000 closer.c
00000000 l    df *ABS*	00000000 mallocr.c
00000000 l    df *ABS*	00000000 fclose.c
00000000 l    df *ABS*	00000000 fputwc.c
00000000 l    df *ABS*	00000000 fstatr.c
00000000 l    df *ABS*	00000000 int_errno.c
00000000 l    df *ABS*	00000000 isattyr.c
00000000 l    df *ABS*	00000000 lseekr.c
00000000 l    df *ABS*	00000000 readr.c
00000000 l    df *ABS*	00000000 wbuf.c
00000000 l    df *ABS*	00000000 wcrtomb.c
00000000 l    df *ABS*	00000000 wctomb_r.c
00000000 l    df *ABS*	00000000 libgcc2.c
00000000 l    df *ABS*	00000000 libgcc2.c
00000000 l    df *ABS*	00000000 lib2-divmod.c
00000000 l    df *ABS*	00000000 lib2-mul.c
00000000 l    df *ABS*	00000000 adddf3.c
00000000 l    df *ABS*	00000000 divdf3.c
00000000 l    df *ABS*	00000000 eqdf2.c
00000000 l    df *ABS*	00000000 gedf2.c
00000000 l    df *ABS*	00000000 ledf2.c
00000000 l    df *ABS*	00000000 muldf3.c
00000000 l    df *ABS*	00000000 subdf3.c
00000000 l    df *ABS*	00000000 fixdfsi.c
00000000 l    df *ABS*	00000000 floatsidf.c
00000000 l    df *ABS*	00000000 floatunsidf.c
00000000 l    df *ABS*	00000000 libgcc2.c
00000000 l    df *ABS*	00000000 libgcc2.c
00000000 l    df *ABS*	00000000 alt_close.c
0200f1fc l     F .text	0000003c alt_get_errno
00000000 l    df *ABS*	00000000 alt_dev.c
0200f310 l     F .text	0000002c alt_dev_null_write
00000000 l    df *ABS*	00000000 alt_errno.c
00000000 l    df *ABS*	00000000 alt_fstat.c
0200f33c l     F .text	0000003c alt_get_errno
00000000 l    df *ABS*	00000000 alt_isatty.c
0200f430 l     F .text	0000003c alt_get_errno
00000000 l    df *ABS*	00000000 alt_load.c
0200f518 l     F .text	00000068 alt_load_section
00000000 l    df *ABS*	00000000 alt_lseek.c
0200f604 l     F .text	0000003c alt_get_errno
00000000 l    df *ABS*	00000000 alt_main.c
00000000 l    df *ABS*	00000000 alt_malloc_lock.c
00000000 l    df *ABS*	00000000 alt_read.c
0200f7e0 l     F .text	0000003c alt_get_errno
00000000 l    df *ABS*	00000000 alt_release_fd.c
00000000 l    df *ABS*	00000000 alt_sbrk.c
02013f74 l     O .rwdata	00000004 heap_end
00000000 l    df *ABS*	00000000 alt_usleep.c
00000000 l    df *ABS*	00000000 alt_write.c
0200fa84 l     F .text	0000003c alt_get_errno
00000000 l    df *ABS*	00000000 alt_sys_init.c
0200fbc0 l     F .text	00000034 alt_dev_reg
02012ee4 l     O .rwdata	00001060 jtag_uart_0
00000000 l    df *ABS*	00000000 altera_avalon_jtag_uart_fd.c
00000000 l    df *ABS*	00000000 altera_avalon_jtag_uart_init.c
0200fe9c l     F .text	0000020c altera_avalon_jtag_uart_irq
020100a8 l     F .text	000000a0 altera_avalon_jtag_uart_timeout
00000000 l    df *ABS*	00000000 altera_avalon_jtag_uart_ioctl.c
00000000 l    df *ABS*	00000000 altera_avalon_jtag_uart_read.c
00000000 l    df *ABS*	00000000 altera_avalon_jtag_uart_write.c
00000000 l    df *ABS*	00000000 alt_alarm_start.c
00000000 l    df *ABS*	00000000 alt_busy_sleep.c
00000000 l    df *ABS*	00000000 alt_dcache_flush_all.c
00000000 l    df *ABS*	00000000 alt_dev_llist_insert.c
02010984 l     F .text	0000003c alt_get_errno
00000000 l    df *ABS*	00000000 alt_do_ctors.c
00000000 l    df *ABS*	00000000 alt_do_dtors.c
00000000 l    df *ABS*	00000000 alt_icache_flush_all.c
00000000 l    df *ABS*	00000000 alt_iic.c
00000000 l    df *ABS*	00000000 alt_iic_isr_register.c
00000000 l    df *ABS*	00000000 alt_io_redirect.c
02010de4 l     F .text	000000e4 alt_open_fd
00000000 l    df *ABS*	00000000 alt_irq_vars.c
00000000 l    df *ABS*	00000000 alt_open.c
02010f44 l     F .text	0000003c alt_get_errno
02010f80 l     F .text	000000ec alt_file_locked
00000000 l    df *ABS*	00000000 alt_tick.c
00000000 l    df *ABS*	00000000 altera_nios2_gen2_irq.c
00000000 l    df *ABS*	00000000 alt_find_dev.c
00000000 l    df *ABS*	00000000 alt_find_file.c
00000000 l    df *ABS*	00000000 alt_get_fd.c
00000000 l    df *ABS*	00000000 atexit.c
00000000 l    df *ABS*	00000000 exit.c
00000000 l    df *ABS*	00000000 memcmp.c
00000000 l    df *ABS*	00000000 __atexit.c
00000000 l    df *ABS*	00000000 __call_atexit.c
00000000 l    df *ABS*	00000000 alt_exit.c
02015aa8 g     O .bss	00000004 alt_instruction_exception_handler
020091bc g     F .text	00000074 _mprec_log10
020092a8 g     F .text	0000008c __any_on
0200b768 g     F .text	00000054 _isatty_r
0201222c g     O .rodata	00000028 __mprec_tinytens
0200f71c g     F .text	0000007c alt_main
02002328 g     F .text	000000c0 _puts_r
02015ad4 g     O .bss	00000100 alt_irq
0200b7bc g     F .text	00000060 _lseek_r
02013f84 g       *ABS*	00000000 __flash_rwdata_start
0200dbd4 g     F .text	00000088 .hidden __eqdf2
02015bd4 g       *ABS*	00000000 __alt_heap_start
020022ec g     F .text	0000003c printf
0200b9d4 g     F .text	0000009c _wcrtomb_r
02009a38 g     F .text	0000005c __sseek
02006854 g     F .text	00000010 __sinit
0200b87c g     F .text	00000140 __swbuf_r
02007328 g     F .text	0000007c _setlocale_r
020066ac g     F .text	00000078 __sfmoreglue
0200f7bc g     F .text	00000024 __malloc_unlock
020021bc g     F .text	00000080 UsbGetRetryCnt
02007ff8 g     F .text	0000015c memmove
0200026c g     F .text	00000088 IO_init
0200683c g     F .text	00000018 _cleanup
0200827c g     F .text	000000a8 _Balloc
0200dc5c g     F .text	000000dc .hidden __gtdf2
0201136c g     F .text	00000024 altera_nios2_gen2_irq_init
02000000 g     F .entry	0000000c __reset
02000020 g       *ABS*	00000000 __flash_exceptions_start
0200b70c g     F .text	0000005c _fstat_r
02015a8c g     O .bss	00000004 errno
020099b4 g     F .text	00000008 __seofread
02015a94 g     O .bss	00000004 alt_argv
0201bf44 g       *ABS*	00000000 _gp
0200fa54 g     F .text	00000030 usleep
02012d64 g     O .rwdata	00000180 alt_fd_list
02011390 g     F .text	00000090 alt_find_dev
02007eb0 g     F .text	00000148 memcpy
020064fc g     F .text	0000000c _cleanup_r
0200f014 g     F .text	000000dc .hidden __floatsidf
02010ec8 g     F .text	0000007c alt_io_redirect
0200dd38 g     F .text	000000f4 .hidden __ltdf2
02011a1c g       *ABS*	00000000 __DTOR_END__
020023e8 g     F .text	00000014 puts
020115ec g     F .text	0000009c alt_exception_cause_generated_bad_addr
02009898 g     F .text	00000074 __fpclassifyd
02009118 g     F .text	000000a4 __ratio
0200b198 g     F .text	0000001c __vfiprintf_internal
020102a0 g     F .text	0000021c altera_avalon_jtag_uart_read
020022bc g     F .text	00000030 _printf_r
00000000 g       *ABS*	00000000 __alt_mem_onchip_memory2_0
0200c874 g     F .text	00000064 .hidden __udivsi3
0200f46c g     F .text	000000ac isatty
0201227c g     O .rodata	000000c8 __mprec_tens
020073a4 g     F .text	0000000c __locale_charset
02015a88 g     O .bss	00000004 __malloc_top_pad
02001848 g     F .text	00000268 UsbGetConfigDesc2
02013f4c g     O .rwdata	00000004 __mb_cur_max
020073d4 g     F .text	0000000c _localeconv_r
020086b0 g     F .text	0000003c __i2b
02006cd8 g     F .text	000004c8 __sfvwrite_r
0200990c g     F .text	00000054 _sbrk_r
0200b81c g     F .text	00000060 _read_r
02013f6c g     O .rwdata	00000004 alt_max_fd
0200b400 g     F .text	000000f0 _fclose_r
020064c4 g     F .text	00000030 fflush
02015a84 g     O .bss	00000004 __malloc_max_sbrked_mem
0200c958 g     F .text	000008ac .hidden __adddf3
02008ec0 g     F .text	0000010c __b2d
0200c1b8 g     F .text	000005c4 .hidden __umoddi3
0200f640 g     F .text	000000dc lseek
02013f44 g     O .rwdata	00000004 _global_impure_ptr
02009334 g     F .text	00000564 _realloc_r
02015bd4 g       *ABS*	00000000 __bss_end
02010cf4 g     F .text	000000f0 alt_iic_isr_register
02011264 g     F .text	00000108 alt_tick
0200bbbc g     F .text	000005fc .hidden __udivdi3
0200b668 g     F .text	00000024 _fputwc_r
02012254 g     O .rodata	00000028 __mprec_bigtens
02008494 g     F .text	00000104 __s2b
0200f0f0 g     F .text	000000a8 .hidden __floatunsidf
02008c00 g     F .text	00000060 __mcmp
02001298 g     F .text	00000100 UsbSetAddress
02006874 g     F .text	00000018 __fp_lock_all
02010ca8 g     F .text	0000004c alt_ic_irq_enabled
020111c8 g     F .text	0000009c alt_alarm_stop
02015a9c g     O .bss	00000004 alt_irq_active
020000fc g     F .exceptions	000000d4 alt_irq_handler
02012d3c g     O .rwdata	00000028 alt_dev_null
02010964 g     F .text	00000020 alt_dcache_flush_all
02008598 g     F .text	00000068 __hi0bits
02000364 g     F .text	00000068 IO_read
0200ef94 g     F .text	00000080 .hidden __fixdfsi
02013f84 g       *ABS*	00000000 __ram_rwdata_end
02013f64 g     O .rwdata	00000008 alt_dev_list
0200fac0 g     F .text	00000100 write
02012498 g       *ABS*	00000000 __ram_rodata_end
0200f378 g     F .text	000000b8 fstat
0200dd38 g     F .text	000000f4 .hidden __ledf2
0200223c g     F .text	00000080 UsbPrintMem
02008978 g     F .text	00000140 __pow5mult
02009c8c g     F .text	0000150c ___vfiprintf_internal_r
02015a7c g     O .bss	00000004 __nlocale_changed
0200c8d8 g     F .text	00000058 .hidden __umodsi3
02015bd4 g       *ABS*	00000000 end
0200fddc g     F .text	000000c0 altera_avalon_jtag_uart_init
020001d0 g     F .exceptions	00000060 alt_instruction_exception_entry
02011a1c g       *ABS*	00000000 __CTOR_LIST__
03000000 g       *ABS*	00000000 __alt_stack_pointer
0200f198 g     F .text	00000064 .hidden __clzsi2
020104bc g     F .text	00000224 altera_avalon_jtag_uart_write
02006864 g     F .text	00000004 __sfp_lock_acquire
02007dcc g     F .text	000000e4 memchr
02002494 g     F .text	000022dc ___vfprintf_internal_r
02001bb0 g     F .text	00000100 UsbClassRequest
020069c8 g     F .text	00000310 _free_r
020073b0 g     F .text	00000010 __locale_mb_cur_max
02011868 g     F .text	00000180 __call_exitprocs
02015a78 g     O .bss	00000004 __mlocale_changed
02013f50 g     O .rwdata	00000004 __malloc_sbrk_base
02000230 g     F .text	0000003c _start
02015aa0 g     O .bss	00000004 _alt_tick_rate
02008ab8 g     F .text	00000148 __lshift
02015aa4 g     O .bss	00000004 _alt_nticks
0200f81c g     F .text	00000104 read
0200fc2c g     F .text	0000004c alt_sys_init
02011750 g     F .text	00000118 __register_exitproc
020086ec g     F .text	0000028c __multiply
02010148 g     F .text	00000068 altera_avalon_jtag_uart_close
0200c930 g     F .text	00000028 .hidden __mulsi3
02012498 g       *ABS*	00000000 __ram_rwdata_start
02011a1c g       *ABS*	00000000 __ram_rodata_start
02015aac g     O .bss	00000028 __malloc_current_mallinfo
02008fcc g     F .text	0000014c __d2b
02001398 g     F .text	00000148 UsbGetDeviceDesc1
0200fc78 g     F .text	00000060 altera_avalon_jtag_uart_read_fd
02011528 g     F .text	000000c4 alt_get_fd
0201080c g     F .text	00000158 alt_busy_sleep
0200b2d0 g     F .text	00000054 _close_r
020116d4 g     F .text	0000007c memcmp
0200fd38 g     F .text	00000050 altera_avalon_jtag_uart_close_fd
02015bd4 g       *ABS*	00000000 __alt_stack_base
0200fd88 g     F .text	00000054 altera_avalon_jtag_uart_ioctl_fd
02004848 g     F .text	00000154 __swsetup_r
0200d204 g     F .text	000009d0 .hidden __divdf3
02006724 g     F .text	00000118 __sfp
02009230 g     F .text	00000078 __copybits
02012934 g     O .rwdata	00000408 __malloc_av_
02006870 g     F .text	00000004 __sinit_lock_release
0200de2c g     F .text	0000086c .hidden __muldf3
02009960 g     F .text	00000054 __sread
02002138 g     F .text	00000084 UsbWaitTDListDone
02011420 g     F .text	00000108 alt_find_file
020109c0 g     F .text	000000a4 alt_dev_llist_insert
0200f798 g     F .text	00000024 __malloc_lock
0200f9a4 g     F .text	000000b0 sbrk
02006468 g     F .text	0000005c _fflush_r
0200b324 g     F .text	000000dc _calloc_r
02015a70 g       *ABS*	00000000 __bss_start
02008154 g     F .text	00000128 memset
020003cc g     F .text	00000d7c main
02015a98 g     O .bss	00000004 alt_envp
02015a80 g     O .bss	00000004 __malloc_max_total_mem
0200fcd8 g     F .text	00000060 altera_avalon_jtag_uart_write_fd
02001ab0 g     F .text	00000100 UsbSetConfig
0200b9bc g     F .text	00000018 __swbuf
02009a94 g     F .text	00000008 __sclose
03000000 g       *ABS*	00000000 __alt_heap_limit
0200b4f0 g     F .text	00000014 fclose
02004bc4 g     F .text	00001688 _dtoa_r
020075c0 g     F .text	0000080c _malloc_r
0200bb30 g     F .text	00000030 __ascii_wctomb
02013f70 g     O .rwdata	00000004 alt_errno
020071a0 g     F .text	000000c4 _fwalk
0200c77c g     F .text	00000084 .hidden __divsi3
020068a4 g     F .text	00000124 _malloc_trim_r
02001cb0 g     F .text	00000148 UsbGetHidDesc
02011a1c g       *ABS*	00000000 __CTOR_END__
02009a9c g     F .text	000000dc strcmp
02011a1c g       *ABS*	00000000 __flash_rodata_start
02011a1c g       *ABS*	00000000 __DTOR_LIST__
0200dbd4 g     F .text	00000088 .hidden __nedf2
020011a0 g     F .text	00000044 UsbRead
0200fbf4 g     F .text	00000038 alt_irq_init
0200f920 g     F .text	00000084 alt_release_fd
02012364 g     O .rodata	00000100 .hidden __clz_tab
02015a74 g     O .bss	00000004 _PathLocale
02011688 g     F .text	00000014 atexit
0200b270 g     F .text	00000060 _write_r
020073e0 g     F .text	00000018 setlocale
02013f48 g     O .rwdata	00000004 _impure_ptr
02015a90 g     O .bss	00000004 alt_argc
0200624c g     F .text	0000021c __sflush_r
02010ac4 g     F .text	00000060 _do_dtors
020073cc g     F .text	00000008 __locale_cjk_lang
02000020 g       .exceptions	00000000 alt_irq_entry
02008e5c g     F .text	00000064 __ulp
0200688c g     F .text	00000018 __fp_unlock_all
02013f5c g     O .rwdata	00000008 alt_fs_list
02001df8 g     F .text	00000340 UsbGetReportDesc
02000020 g       *ABS*	00000000 __ram_exceptions_start
020073f8 g     F .text	0000000c localeconv
02010b44 g     F .text	00000050 alt_ic_isr_register
02013f84 g       *ABS*	00000000 _edata
02015bd4 g       *ABS*	00000000 _end
02001148 g     F .text	00000058 UsbWrite
0200b504 g     F .text	00000164 __fputwc
02000230 g       *ABS*	00000000 __ram_exceptions_end
020101b0 g     F .text	000000f0 altera_avalon_jtag_uart_ioctl
02010c1c g     F .text	0000008c alt_ic_irq_disable
020099bc g     F .text	0000007c __swrite
02013f54 g     O .rwdata	00000004 __malloc_trim_threshold
020073c0 g     F .text	0000000c __locale_msgcharset
0201169c g     F .text	00000038 exit
02007264 g     F .text	000000c4 _fwalk_reent
02008c60 g     F .text	000001fc __mdiff
0200c800 g     F .text	00000074 .hidden __modsi3
03000000 g       *ABS*	00000000 __alt_data_end
02000020 g     F .exceptions	00000000 alt_exception
02006868 g     F .text	00000004 __sfp_lock_release
02000000 g       *ABS*	00000000 __alt_mem_sdram
020002f4 g     F .text	00000070 IO_write
020119e8 g     F .text	00000034 _exit
020106e0 g     F .text	0000012c alt_alarm_start
02007404 g     F .text	000001bc __smakebuf_r
020023fc g     F .text	00000098 strlen
0201106c g     F .text	0000015c open
0200dc5c g     F .text	000000dc .hidden __gedf2
02013f58 g     O .rwdata	00000004 __wctomb
02009c74 g     F .text	00000018 __sprint_r
02010b24 g     F .text	00000020 alt_icache_flush_all
02013f78 g     O .rwdata	00000004 alt_priority_mask
02010b94 g     F .text	00000088 alt_ic_irq_enable
02004770 g     F .text	0000001c __vfprintf_internal
0200bb60 g     F .text	0000005c _wctomb_r
0200e698 g     F .text	000008fc .hidden __subdf3
02008600 g     F .text	000000b0 __lo0bits
020016b8 g     F .text	00000190 UsbGetConfigDesc1
02013f7c g     O .rwdata	00000008 alt_alarm_list
02010a64 g     F .text	00000060 _do_ctors
020011e4 g     F .text	000000b4 UsbSoftReset
0200ba70 g     F .text	000000c0 wcrtomb
0200f238 g     F .text	000000d8 close
020014e0 g     F .text	000001d8 UsbGetDeviceDesc2
0200f580 g     F .text	00000084 alt_load
0200b68c g     F .text	00000080 fputwc
0200686c g     F .text	00000004 __sinit_lock_acquire
0200834c g     F .text	00000148 __multadd
02008324 g     F .text	00000028 _Bfree



Disassembly of section .entry:

02000000 <__reset>:
 * Jump to the _start entry point in the .text section if reset code
 * is allowed or if optimizing for RTL simulation.
 */
#if defined(ALT_ALLOW_CODE_AT_RESET) || defined(ALT_SIM_OPTIMIZE)
    /* Jump to the _start entry point in the .text section. */
    movhi r1, %hi(_start)
 2000000:	00408034 	movhi	at,512
    ori r1, r1, %lo(_start)
 2000004:	08408c14 	ori	at,at,560
    jmp r1
 2000008:	0800683a 	jmp	at
	...

Disassembly of section .exceptions:

02000020 <alt_exception>:

#else /* ALT_EXCEPTION_STACK disabled */
        /* 
         * Reserve space on normal stack for registers about to be pushed.
         */
        addi  sp, sp, -76
 2000020:	deffed04 	addi	sp,sp,-76
         * documentation for details).
         *
         * Leave a gap in the stack frame at 4(sp) for the muldiv handler to
         * store zero into.
         */
        stw   ra,  0(sp)
 2000024:	dfc00015 	stw	ra,0(sp)
        stw   r1,   8(sp)
 2000028:	d8400215 	stw	at,8(sp)
        stw   r2,  12(sp)
 200002c:	d8800315 	stw	r2,12(sp)
        stw   r3,  16(sp)
 2000030:	d8c00415 	stw	r3,16(sp)
        stw   r4,  20(sp)
 2000034:	d9000515 	stw	r4,20(sp)
        stw   r5,  24(sp)
 2000038:	d9400615 	stw	r5,24(sp)
        stw   r6,  28(sp)
 200003c:	d9800715 	stw	r6,28(sp)
        stw   r7,  32(sp)
 2000040:	d9c00815 	stw	r7,32(sp)
        rdctl r5, estatus   /* Read early to avoid usage stall */
 2000044:	000b307a 	rdctl	r5,estatus
        stw   r8,  36(sp)
 2000048:	da000915 	stw	r8,36(sp)
        stw   r9,  40(sp)
 200004c:	da400a15 	stw	r9,40(sp)
        stw   r10, 44(sp)
 2000050:	da800b15 	stw	r10,44(sp)
        stw   r11, 48(sp)
 2000054:	dac00c15 	stw	r11,48(sp)
        stw   r12, 52(sp)
 2000058:	db000d15 	stw	r12,52(sp)
        stw   r13, 56(sp)
 200005c:	db400e15 	stw	r13,56(sp)
        stw   r14, 60(sp)
 2000060:	db800f15 	stw	r14,60(sp)
        stw   r15, 64(sp)
 2000064:	dbc01015 	stw	r15,64(sp)
        /*
         * ea-4 contains the address of the instruction being executed
         * when the exception occured. For interrupt exceptions, we will
         * will be re-issue the isntruction. Store it in 72(sp)
         */
        stw   r5,  68(sp)  /* estatus */
 2000068:	d9401115 	stw	r5,68(sp)
        addi  r15, ea, -4  /* instruction that caused exception */
 200006c:	ebffff04 	addi	r15,ea,-4
        stw   r15,  72(sp)
 2000070:	dbc01215 	stw	r15,72(sp)
#else
        /*
         * Test to see if the exception was a software exception or caused 
         * by an external interrupt, and vector accordingly.
         */
        rdctl r4, ipending
 2000074:	0009313a 	rdctl	r4,ipending
        andi  r2, r5, 1
 2000078:	2880004c 	andi	r2,r5,1
        beq   r2, zero, .Lnot_irq
 200007c:	10000326 	beq	r2,zero,200008c <alt_exception+0x6c>
        beq   r4, zero, .Lnot_irq
 2000080:	20000226 	beq	r4,zero,200008c <alt_exception+0x6c>
        /*
         * Now that all necessary registers have been preserved, call 
         * alt_irq_handler() to process the interrupts.
         */

        call alt_irq_handler
 2000084:	20000fc0 	call	20000fc <alt_irq_handler>

        .section .exceptions.irqreturn, "xa"

        br    .Lexception_exit
 2000088:	00000706 	br	20000a8 <alt_exception+0x88>
         * upon completion, so we write ea (address of instruction *after*
         * the one where the exception occured) into 72(sp). The actual
         * instruction that caused the exception is written in r2, which these
         * handlers will utilize.
         */
        stw ea, 72(sp) /* EA is PC+4 so will skip over instruction causing exception */
 200008c:	df401215 	stw	ea,72(sp)
.Lunknown_16bit:
        addi.n r4, r4, 2 /* Need PC+2 to skip over instruction causing exception */
        stw r4, 72(sp)

#else /* CDX is not Enabled and all instructions are 32bits */
        ldw r2, -4(ea) /* Instruction value that caused exception */
 2000090:	e8bfff17 	ldw	r2,-4(ea)
         * debugger is present) or go into an infinite loop since the
         * handling behavior is undefined; in that case we will not return here.
         */

        /* Load exception-causing address as first argument (r4) */
        addi   r4, ea, -4
 2000094:	e93fff04 	addi	r4,ea,-4

        /* Call the instruction-exception entry */
        call   alt_instruction_exception_entry
 2000098:	20001d00 	call	20001d0 <alt_instruction_exception_entry>
         * instruction
         *
         * Return code was 0: Skip. The instruction after the exception is
         * already stored in 72(sp).
         */
        bne   r2, r0, .Lexception_exit
 200009c:	1000021e 	bne	r2,zero,20000a8 <alt_exception+0x88>

        /*
         * Otherwise, modify 72(sp) to re-issue the instruction that caused the
         * exception.
         */
        addi  r15, ea, -4  /* instruction that caused exception */
 20000a0:	ebffff04 	addi	r15,ea,-4
        stw   r15,  72(sp)
 20000a4:	dbc01215 	stw	r15,72(sp)
        /* 
         * Restore the saved registers, so that all general purpose registers 
         * have been restored to their state at the time the interrupt occured.
         */

        ldw   r5,  68(sp)
 20000a8:	d9401117 	ldw	r5,68(sp)
        ldw   ea,  72(sp)  /* This becomes the PC once eret is executed */
 20000ac:	df401217 	ldw	ea,72(sp)
        ldw   ra,   0(sp)
 20000b0:	dfc00017 	ldw	ra,0(sp)

        wrctl estatus, r5
 20000b4:	2801707a 	wrctl	estatus,r5

        ldw   r1,   8(sp)
 20000b8:	d8400217 	ldw	at,8(sp)
        ldw   r2,  12(sp)
 20000bc:	d8800317 	ldw	r2,12(sp)
        ldw   r3,  16(sp)
 20000c0:	d8c00417 	ldw	r3,16(sp)
        ldw   r4,  20(sp)
 20000c4:	d9000517 	ldw	r4,20(sp)
        ldw   r5,  24(sp)
 20000c8:	d9400617 	ldw	r5,24(sp)
        ldw   r6,  28(sp)
 20000cc:	d9800717 	ldw	r6,28(sp)
        ldw   r7,  32(sp)
 20000d0:	d9c00817 	ldw	r7,32(sp)

#if defined(ALT_EXCEPTION_STACK) && defined(ALT_STACK_CHECK)
        ldw   et, %gprel(alt_exception_old_stack_limit)(gp)
#endif

        ldw   r8,  36(sp)
 20000d4:	da000917 	ldw	r8,36(sp)
        ldw   r9,  40(sp)
 20000d8:	da400a17 	ldw	r9,40(sp)
        ldw   r10, 44(sp)
 20000dc:	da800b17 	ldw	r10,44(sp)
        ldw   r11, 48(sp)
 20000e0:	dac00c17 	ldw	r11,48(sp)
        ldw   r12, 52(sp)
 20000e4:	db000d17 	ldw	r12,52(sp)
        ldw   r13, 56(sp)
 20000e8:	db400e17 	ldw	r13,56(sp)
        ldw   r14, 60(sp)
 20000ec:	db800f17 	ldw	r14,60(sp)
        ldw   r15, 64(sp)
 20000f0:	dbc01017 	ldw	r15,64(sp)
        stw   et, %gprel(alt_stack_limit_value)(gp)
        stw   zero, %gprel(alt_exception_old_stack_limit)(gp)
#endif /* ALT_STACK_CHECK */
        ldw   sp,  76(sp)
#else /* ALT_EXCEPTION_STACK disabled */
        addi  sp, sp, 76
 20000f4:	dec01304 	addi	sp,sp,76

        /*
         * Return to the interrupted instruction.
         */

        eret
 20000f8:	ef80083a 	eret

020000fc <alt_irq_handler>:
 * instruction is present if the macro ALT_CI_INTERRUPT_VECTOR defined.
 */

void alt_irq_handler (void) __attribute__ ((section (".exceptions")));
void alt_irq_handler (void)
{
 20000fc:	defff904 	addi	sp,sp,-28
 2000100:	dfc00615 	stw	ra,24(sp)
 2000104:	df000515 	stw	fp,20(sp)
 2000108:	df000504 	addi	fp,sp,20
  
  /*
   * Notify the operating system that we are at interrupt level.
   */ 
  
  ALT_OS_INT_ENTER();
 200010c:	0001883a 	nop
#ifndef NIOS2_EIC_PRESENT
static ALT_INLINE alt_u32 ALT_ALWAYS_INLINE alt_irq_pending (void)
{
  alt_u32 active;

  NIOS2_READ_IPENDING (active);
 2000110:	0005313a 	rdctl	r2,ipending
 2000114:	e0bffe15 	stw	r2,-8(fp)

  return active;
 2000118:	e0bffe17 	ldw	r2,-8(fp)
   * Consider the case where the high priority interupt is asserted during
   * the interrupt entry sequence for a lower priority interrupt to see why
   * this is the case.
   */

  active = alt_irq_pending ();
 200011c:	e0bffb15 	stw	r2,-20(fp)

  do
  {
    i = 0;
 2000120:	e03ffd15 	stw	zero,-12(fp)
    mask = 1;
 2000124:	00800044 	movi	r2,1
 2000128:	e0bffc15 	stw	r2,-16(fp)
     * called to clear the interrupt condition.
     */

    do
    {
      if (active & mask)
 200012c:	e0fffb17 	ldw	r3,-20(fp)
 2000130:	e0bffc17 	ldw	r2,-16(fp)
 2000134:	1884703a 	and	r2,r3,r2
 2000138:	10001426 	beq	r2,zero,200018c <alt_irq_handler+0x90>
      { 
#ifdef ALT_ENHANCED_INTERRUPT_API_PRESENT
        alt_irq[i].handler(alt_irq[i].context); 
 200013c:	00808074 	movhi	r2,513
 2000140:	1096b504 	addi	r2,r2,23252
 2000144:	e0fffd17 	ldw	r3,-12(fp)
 2000148:	180690fa 	slli	r3,r3,3
 200014c:	10c5883a 	add	r2,r2,r3
 2000150:	10c00017 	ldw	r3,0(r2)
 2000154:	00808074 	movhi	r2,513
 2000158:	1096b504 	addi	r2,r2,23252
 200015c:	e13ffd17 	ldw	r4,-12(fp)
 2000160:	200890fa 	slli	r4,r4,3
 2000164:	1105883a 	add	r2,r2,r4
 2000168:	10800104 	addi	r2,r2,4
 200016c:	10800017 	ldw	r2,0(r2)
 2000170:	1009883a 	mov	r4,r2
 2000174:	183ee83a 	callr	r3
#else
        alt_irq[i].handler(alt_irq[i].context, i); 
#endif
        break;
 2000178:	0001883a 	nop
#ifndef NIOS2_EIC_PRESENT
static ALT_INLINE alt_u32 ALT_ALWAYS_INLINE alt_irq_pending (void)
{
  alt_u32 active;

  NIOS2_READ_IPENDING (active);
 200017c:	0005313a 	rdctl	r2,ipending
 2000180:	e0bfff15 	stw	r2,-4(fp)

  return active;
 2000184:	e0bfff17 	ldw	r2,-4(fp)
 2000188:	00000706 	br	20001a8 <alt_irq_handler+0xac>
      }
      mask <<= 1;
 200018c:	e0bffc17 	ldw	r2,-16(fp)
 2000190:	1085883a 	add	r2,r2,r2
 2000194:	e0bffc15 	stw	r2,-16(fp)
      i++;
 2000198:	e0bffd17 	ldw	r2,-12(fp)
 200019c:	10800044 	addi	r2,r2,1
 20001a0:	e0bffd15 	stw	r2,-12(fp)

    } while (1);
 20001a4:	003fe106 	br	200012c <__alt_data_end+0xff00012c>

    active = alt_irq_pending ();
 20001a8:	e0bffb15 	stw	r2,-20(fp)
    
  } while (active);
 20001ac:	e0bffb17 	ldw	r2,-20(fp)
 20001b0:	103fdb1e 	bne	r2,zero,2000120 <__alt_data_end+0xff000120>

  /*
   * Notify the operating system that interrupt processing is complete.
   */ 

  ALT_OS_INT_EXIT();
 20001b4:	0001883a 	nop
}
 20001b8:	0001883a 	nop
 20001bc:	e037883a 	mov	sp,fp
 20001c0:	dfc00117 	ldw	ra,4(sp)
 20001c4:	df000017 	ldw	fp,0(sp)
 20001c8:	dec00204 	addi	sp,sp,8
 20001cc:	f800283a 	ret

020001d0 <alt_instruction_exception_entry>:
 * that handler if it has been registered. Absent a handler, it will
 * break break or hang as discussed below.
 */
int 
alt_instruction_exception_entry (alt_u32 exception_pc)
{
 20001d0:	defffb04 	addi	sp,sp,-20
 20001d4:	dfc00415 	stw	ra,16(sp)
 20001d8:	df000315 	stw	fp,12(sp)
 20001dc:	df000304 	addi	fp,sp,12
 20001e0:	e13fff15 	stw	r4,-4(fp)
  cause = ( (cause & NIOS2_EXCEPTION_REG_CAUSE_MASK) >>
              NIOS2_EXCEPTION_REG_CAUSE_OFST );

  NIOS2_READ_BADADDR(badaddr);
#else
  cause = NIOS2_EXCEPTION_CAUSE_NOT_PRESENT;
 20001e4:	00bfffc4 	movi	r2,-1
 20001e8:	e0bffd15 	stw	r2,-12(fp)
  badaddr = 0;
 20001ec:	e03ffe15 	stw	zero,-8(fp)
#endif /* NIOS2_HAS_EXTRA_EXCEPTION_INFO */

  if(alt_instruction_exception_handler) {
 20001f0:	d0a6d917 	ldw	r2,-25756(gp)
 20001f4:	10000726 	beq	r2,zero,2000214 <alt_instruction_exception_entry+0x44>
     * Call handler. Its return value indicates whether the exception-causing
     * instruction should be re-issued. The code that called us,
     * alt_eceptions_entry.S, will look at this value and adjust the ea
     * register as necessary
     */
    return alt_instruction_exception_handler(cause, exception_pc, badaddr);
 20001f8:	d0a6d917 	ldw	r2,-25756(gp)
 20001fc:	e0fffd17 	ldw	r3,-12(fp)
 2000200:	e1bffe17 	ldw	r6,-8(fp)
 2000204:	e17fff17 	ldw	r5,-4(fp)
 2000208:	1809883a 	mov	r4,r3
 200020c:	103ee83a 	callr	r2
 2000210:	00000206 	br	200021c <alt_instruction_exception_entry+0x4c>
   *    (a peripheral which negates its interrupt output before its
   *    interrupt handler has been executed will cause spurious interrupts)
   */
  else {
#ifdef NIOS2_HAS_DEBUG_STUB
    NIOS2_BREAK();
 2000214:	003da03a 	break	0
      ;
#endif /* NIOS2_HAS_DEBUG_STUB */
  }

  /* We should not get here. Remove compiler warning. */
  return NIOS2_EXCEPTION_RETURN_REISSUE_INST;
 2000218:	0005883a 	mov	r2,zero
}
 200021c:	e037883a 	mov	sp,fp
 2000220:	dfc00117 	ldw	ra,4(sp)
 2000224:	df000017 	ldw	fp,0(sp)
 2000228:	dec00204 	addi	sp,sp,8
 200022c:	f800283a 	ret

Disassembly of section .text:

02000230 <_start>:

    /*
     * Now that the caches are initialized, set up the stack pointer and global pointer.
     * The values provided by the linker are assumed to be correctly aligned.
     */
    movhi sp, %hi(__alt_stack_pointer)
 2000230:	06c0c034 	movhi	sp,768
    ori sp, sp, %lo(__alt_stack_pointer)
 2000234:	dec00014 	ori	sp,sp,0
    movhi gp, %hi(_gp)
 2000238:	06808074 	movhi	gp,513
    ori gp, gp, %lo(_gp)
 200023c:	d6afd114 	ori	gp,gp,48964
 */
#ifndef ALT_SIM_OPTIMIZE
    /* Log that the BSS is about to be cleared. */
    ALT_LOG_PUTS(alt_log_msg_bss)

    movhi r2, %hi(__bss_start)
 2000240:	00808074 	movhi	r2,513
    ori r2, r2, %lo(__bss_start)
 2000244:	10969c14 	ori	r2,r2,23152

    movhi r3, %hi(__bss_end)
 2000248:	00c08074 	movhi	r3,513
    ori r3, r3, %lo(__bss_end)
 200024c:	18d6f514 	ori	r3,r3,23508

    beq r2, r3, 1f
 2000250:	10c00326 	beq	r2,r3,2000260 <_start+0x30>

0:
    stw zero, (r2)
 2000254:	10000015 	stw	zero,0(r2)
    addi r2, r2, 4
 2000258:	10800104 	addi	r2,r2,4
    bltu r2, r3, 0b
 200025c:	10fffd36 	bltu	r2,r3,2000254 <__alt_data_end+0xff000254>
     * section aren't defined until alt_load() has been called).
     */
    mov   et, zero
#endif

    call alt_load
 2000260:	200f5800 	call	200f580 <alt_load>

    /* Log that alt_main is about to be called. */
    ALT_LOG_PUTS(alt_log_msg_alt_main)

    /* Call the C entry point. It should never return. */
    call alt_main
 2000264:	200f71c0 	call	200f71c <alt_main>

02000268 <alt_after_alt_main>:

    /* Wait in infinite loop in case alt_main does return. */
alt_after_alt_main:
    br alt_after_alt_main
 2000268:	003fff06 	br	2000268 <__alt_data_end+0xff000268>

0200026c <IO_init>:
//io_handler.c
#include "io_handler.h"
#include <stdio.h>

void IO_init(void)
{
 200026c:	deffff04 	addi	sp,sp,-4
 2000270:	df000015 	stw	fp,0(sp)
 2000274:	d839883a 	mov	fp,sp
	*otg_hpi_reset = 1;
 2000278:	00802004 	movi	r2,128
 200027c:	00c00044 	movi	r3,1
 2000280:	10c00005 	stb	r3,0(r2)
	*otg_hpi_cs = 1;
 2000284:	00801c04 	movi	r2,112
 2000288:	00c00044 	movi	r3,1
 200028c:	10c00005 	stb	r3,0(r2)
	*otg_hpi_r = 1;
 2000290:	00800c04 	movi	r2,48
 2000294:	00c00044 	movi	r3,1
 2000298:	10c00005 	stb	r3,0(r2)
	*otg_hpi_w = 1;
 200029c:	00801804 	movi	r2,96
 20002a0:	00c00044 	movi	r3,1
 20002a4:	10c00005 	stb	r3,0(r2)
	*otg_hpi_address = 0;
 20002a8:	00801404 	movi	r2,80
 20002ac:	10000015 	stw	zero,0(r2)
	*otg_hpi_data = 0;
 20002b0:	00800804 	movi	r2,32
 20002b4:	10000015 	stw	zero,0(r2)
	// Reset OTG chip
	*otg_hpi_cs = 0;
 20002b8:	00801c04 	movi	r2,112
 20002bc:	10000005 	stb	zero,0(r2)
	*otg_hpi_reset = 0;
 20002c0:	00802004 	movi	r2,128
 20002c4:	10000005 	stb	zero,0(r2)
	*otg_hpi_reset = 1;
 20002c8:	00802004 	movi	r2,128
 20002cc:	00c00044 	movi	r3,1
 20002d0:	10c00005 	stb	r3,0(r2)
	*otg_hpi_cs = 1;
 20002d4:	00801c04 	movi	r2,112
 20002d8:	00c00044 	movi	r3,1
 20002dc:	10c00005 	stb	r3,0(r2)
}
 20002e0:	0001883a 	nop
 20002e4:	e037883a 	mov	sp,fp
 20002e8:	df000017 	ldw	fp,0(sp)
 20002ec:	dec00104 	addi	sp,sp,4
 20002f0:	f800283a 	ret

020002f4 <IO_write>:

void IO_write(alt_u8 Address, alt_u16 Data)
{
 20002f4:	defffd04 	addi	sp,sp,-12
 20002f8:	df000215 	stw	fp,8(sp)
 20002fc:	df000204 	addi	fp,sp,8
 2000300:	2007883a 	mov	r3,r4
 2000304:	2805883a 	mov	r2,r5
 2000308:	e0fffe05 	stb	r3,-8(fp)
 200030c:	e0bfff0d 	sth	r2,-4(fp)
//									TASK								   //
//*************************************************************************//
//							Write this function							   //
//*************************************************************************//
// waveform of write
*otg_hpi_data = Data;
 2000310:	00800804 	movi	r2,32
 2000314:	e0ffff0b 	ldhu	r3,-4(fp)
 2000318:	10c00015 	stw	r3,0(r2)
*otg_hpi_address = Address; // NOT SURE: OFFESET?
 200031c:	00801404 	movi	r2,80
 2000320:	e0fffe03 	ldbu	r3,-8(fp)
 2000324:	10c00015 	stw	r3,0(r2)
*otg_hpi_cs = 0;
 2000328:	00801c04 	movi	r2,112
 200032c:	10000005 	stb	zero,0(r2)
*otg_hpi_w = 0;
 2000330:	00801804 	movi	r2,96
 2000334:	10000005 	stb	zero,0(r2)
// write Complete
*otg_hpi_w = 1;
 2000338:	00801804 	movi	r2,96
 200033c:	00c00044 	movi	r3,1
 2000340:	10c00005 	stb	r3,0(r2)
*otg_hpi_cs = 1;
 2000344:	00801c04 	movi	r2,112
 2000348:	00c00044 	movi	r3,1
 200034c:	10c00005 	stb	r3,0(r2)
// closed

}
 2000350:	0001883a 	nop
 2000354:	e037883a 	mov	sp,fp
 2000358:	df000017 	ldw	fp,0(sp)
 200035c:	dec00104 	addi	sp,sp,4
 2000360:	f800283a 	ret

02000364 <IO_read>:

alt_u16 IO_read(alt_u8 Address)
{
 2000364:	defffd04 	addi	sp,sp,-12
 2000368:	df000215 	stw	fp,8(sp)
 200036c:	df000204 	addi	fp,sp,8
 2000370:	2005883a 	mov	r2,r4
 2000374:	e0bfff05 	stb	r2,-4(fp)
//									TASK								   //
//*************************************************************************//
//							Write this function							   //
//*************************************************************************//
	//printf("%x\n",temp);
	*otg_hpi_address = Address;
 2000378:	00801404 	movi	r2,80
 200037c:	e0ffff03 	ldbu	r3,-4(fp)
 2000380:	10c00015 	stw	r3,0(r2)
	*otg_hpi_cs = 0;
 2000384:	00801c04 	movi	r2,112
 2000388:	10000005 	stb	zero,0(r2)
	*otg_hpi_r = 0;
 200038c:	00800c04 	movi	r2,48
 2000390:	10000005 	stb	zero,0(r2)
	*otg_hpi_r = 1; // order: not sure
 2000394:	00800c04 	movi	r2,48
 2000398:	00c00044 	movi	r3,1
 200039c:	10c00005 	stb	r3,0(r2)
	temp = *otg_hpi_data; // Order: not sure
 20003a0:	00800804 	movi	r2,32
 20003a4:	10800017 	ldw	r2,0(r2)
 20003a8:	e0bffe0d 	sth	r2,-8(fp)
	*otg_hpi_cs = 1;
 20003ac:	00801c04 	movi	r2,112
 20003b0:	00c00044 	movi	r3,1
 20003b4:	10c00005 	stb	r3,0(r2)
	return temp;
 20003b8:	e0bffe0b 	ldhu	r2,-8(fp)
}
 20003bc:	e037883a 	mov	sp,fp
 20003c0:	df000017 	ldw	fp,0(sp)
 20003c4:	dec00104 	addi	sp,sp,4
 20003c8:	f800283a 	ret

020003cc <main>:
//
//                                Main function
//
//----------------------------------------------------------------------------------------//
int main(void)
{
 20003cc:	defff904 	addi	sp,sp,-28
 20003d0:	dfc00615 	stw	ra,24(sp)
 20003d4:	df000515 	stw	fp,20(sp)
 20003d8:	df000504 	addi	fp,sp,20
	IO_init();
 20003dc:	200026c0 	call	200026c <IO_init>

	alt_u16 intStat;
	alt_u16 usb_ctl_val;
	static alt_u16 ctl_reg = 0;
	static alt_u16 no_device = 0;
	alt_u16 fs_device = 0;
 20003e0:	e03ffc0d 	sth	zero,-16(fp)
	int keycode = 0;
 20003e4:	e03ffd15 	stw	zero,-12(fp)
	alt_u8 toggle = 0;
 20003e8:	e03ffb85 	stb	zero,-18(fp)
	alt_u8 data_size;
	alt_u8 hot_plug_count;
	alt_u16 code;

	printf("USB keyboard setup...\n\n");
 20003ec:	01008074 	movhi	r4,513
 20003f0:	21068704 	addi	r4,r4,6684
 20003f4:	20023e80 	call	20023e8 <puts>

	//----------------------------------------SIE1 initial---------------------------------------------------//
	USB_HOT_PLUG:
	UsbSoftReset();
 20003f8:	20011e40 	call	20011e4 <UsbSoftReset>

	// STEP 1a:
	UsbWrite (HPI_SIE1_MSG_ADR, 0);
 20003fc:	000b883a 	mov	r5,zero
 2000400:	01005104 	movi	r4,324
 2000404:	20011480 	call	2001148 <UsbWrite>
	UsbWrite (HOST1_STAT_REG, 0xFFFF);
 2000408:	017fffd4 	movui	r5,65535
 200040c:	01302414 	movui	r4,49296
 2000410:	20011480 	call	2001148 <UsbWrite>

	/* Set HUSB_pEOT time */
	UsbWrite(HUSB_pEOT, 600); // adjust the according to your USB device speed
 2000414:	01409604 	movi	r5,600
 2000418:	01006d04 	movi	r4,436
 200041c:	20011480 	call	2001148 <UsbWrite>

	usb_ctl_val = SOFEOP1_TO_CPU_EN | RESUME1_TO_HPI_EN;// | SOFEOP1_TO_HPI_EN;
 2000420:	00811004 	movi	r2,1088
 2000424:	e0bffb0d 	sth	r2,-20(fp)
	UsbWrite(HPI_IRQ_ROUTING_REG, usb_ctl_val);
 2000428:	e0bffb0b 	ldhu	r2,-20(fp)
 200042c:	100b883a 	mov	r5,r2
 2000430:	01005084 	movi	r4,322
 2000434:	20011480 	call	2001148 <UsbWrite>

	intStat = A_CHG_IRQ_EN | SOF_EOP_IRQ_EN ;
 2000438:	00808404 	movi	r2,528
 200043c:	e0bffe0d 	sth	r2,-8(fp)
	UsbWrite(HOST1_IRQ_EN_REG, intStat);
 2000440:	e0bffe0b 	ldhu	r2,-8(fp)
 2000444:	100b883a 	mov	r5,r2
 2000448:	01302314 	movui	r4,49292
 200044c:	20011480 	call	2001148 <UsbWrite>
	// STEP 1a end

	// STEP 1b begin
	UsbWrite(COMM_R0,0x0000);//reset time
 2000450:	000b883a 	mov	r5,zero
 2000454:	01007104 	movi	r4,452
 2000458:	20011480 	call	2001148 <UsbWrite>
	UsbWrite(COMM_R1,0x0000);  //port number
 200045c:	000b883a 	mov	r5,zero
 2000460:	01007184 	movi	r4,454
 2000464:	20011480 	call	2001148 <UsbWrite>
	UsbWrite(COMM_R2,0x0000);  //r1
 2000468:	000b883a 	mov	r5,zero
 200046c:	01007204 	movi	r4,456
 2000470:	20011480 	call	2001148 <UsbWrite>
	UsbWrite(COMM_R3,0x0000);  //r1
 2000474:	000b883a 	mov	r5,zero
 2000478:	01007284 	movi	r4,458
 200047c:	20011480 	call	2001148 <UsbWrite>
	UsbWrite(COMM_R4,0x0000);  //r1
 2000480:	000b883a 	mov	r5,zero
 2000484:	01007304 	movi	r4,460
 2000488:	20011480 	call	2001148 <UsbWrite>
	UsbWrite(COMM_R5,0x0000);  //r1
 200048c:	000b883a 	mov	r5,zero
 2000490:	01007384 	movi	r4,462
 2000494:	20011480 	call	2001148 <UsbWrite>
	UsbWrite(COMM_R6,0x0000);  //r1
 2000498:	000b883a 	mov	r5,zero
 200049c:	01007404 	movi	r4,464
 20004a0:	20011480 	call	2001148 <UsbWrite>
	UsbWrite(COMM_R7,0x0000);  //r1
 20004a4:	000b883a 	mov	r5,zero
 20004a8:	01007484 	movi	r4,466
 20004ac:	20011480 	call	2001148 <UsbWrite>
	UsbWrite(COMM_R8,0x0000);  //r1
 20004b0:	000b883a 	mov	r5,zero
 20004b4:	01007504 	movi	r4,468
 20004b8:	20011480 	call	2001148 <UsbWrite>
	UsbWrite(COMM_R9,0x0000);  //r1
 20004bc:	000b883a 	mov	r5,zero
 20004c0:	01007584 	movi	r4,470
 20004c4:	20011480 	call	2001148 <UsbWrite>
	UsbWrite(COMM_R10,0x0000);  //r1
 20004c8:	000b883a 	mov	r5,zero
 20004cc:	01007604 	movi	r4,472
 20004d0:	20011480 	call	2001148 <UsbWrite>
	UsbWrite(COMM_R11,0x0000);  //r1
 20004d4:	000b883a 	mov	r5,zero
 20004d8:	01007684 	movi	r4,474
 20004dc:	20011480 	call	2001148 <UsbWrite>
	UsbWrite(COMM_R12,0x0000);  //r1
 20004e0:	000b883a 	mov	r5,zero
 20004e4:	01007704 	movi	r4,476
 20004e8:	20011480 	call	2001148 <UsbWrite>
	UsbWrite(COMM_R13,0x0000);  //r1
 20004ec:	000b883a 	mov	r5,zero
 20004f0:	01007784 	movi	r4,478
 20004f4:	20011480 	call	2001148 <UsbWrite>
	UsbWrite(COMM_INT_NUM,HUSB_SIE1_INIT_INT); //HUSB_SIE1_INIT_INT
 20004f8:	01401c84 	movi	r5,114
 20004fc:	01007084 	movi	r4,450
 2000500:	20011480 	call	2001148 <UsbWrite>
	IO_write(HPI_MAILBOX,COMM_EXEC_INT);
 2000504:	01738054 	movui	r5,52737
 2000508:	01000044 	movi	r4,1
 200050c:	20002f40 	call	20002f4 <IO_write>

	while (!(IO_read(HPI_STATUS) & 0xFFFF) )  //read sie1 msg register
 2000510:	0001883a 	nop
 2000514:	010000c4 	movi	r4,3
 2000518:	20003640 	call	2000364 <IO_read>
 200051c:	10bfffcc 	andi	r2,r2,65535
 2000520:	103ffc26 	beq	r2,zero,2000514 <__alt_data_end+0xff000514>
	{
	}
	while (IO_read(HPI_MAILBOX) != COMM_ACK)
 2000524:	00000806 	br	2000548 <main+0x17c>
	{
		printf("[ERROR]:routine mailbox data is %x\n",IO_read(HPI_MAILBOX));
 2000528:	01000044 	movi	r4,1
 200052c:	20003640 	call	2000364 <IO_read>
 2000530:	10bfffcc 	andi	r2,r2,65535
 2000534:	100b883a 	mov	r5,r2
 2000538:	01008074 	movhi	r4,513
 200053c:	21068d04 	addi	r4,r4,6708
 2000540:	20022ec0 	call	20022ec <printf>
		goto USB_HOT_PLUG;
 2000544:	003fac06 	br	20003f8 <__alt_data_end+0xff0003f8>
	IO_write(HPI_MAILBOX,COMM_EXEC_INT);

	while (!(IO_read(HPI_STATUS) & 0xFFFF) )  //read sie1 msg register
	{
	}
	while (IO_read(HPI_MAILBOX) != COMM_ACK)
 2000548:	01000044 	movi	r4,1
 200054c:	20003640 	call	2000364 <IO_read>
 2000550:	10bfffcc 	andi	r2,r2,65535
 2000554:	1083fb58 	cmpnei	r2,r2,4077
 2000558:	103ff31e 	bne	r2,zero,2000528 <__alt_data_end+0xff000528>
		printf("[ERROR]:routine mailbox data is %x\n",IO_read(HPI_MAILBOX));
		goto USB_HOT_PLUG;
	}
	// STEP 1b end

	printf("STEP 1 Complete");
 200055c:	01008074 	movhi	r4,513
 2000560:	21069604 	addi	r4,r4,6744
 2000564:	20022ec0 	call	20022ec <printf>
	// STEP 2 begin
	UsbWrite(COMM_INT_NUM,HUSB_RESET_INT); //husb reset
 2000568:	01401d04 	movi	r5,116
 200056c:	01007084 	movi	r4,450
 2000570:	20011480 	call	2001148 <UsbWrite>
	UsbWrite(COMM_R0,0x003c);//reset time
 2000574:	01400f04 	movi	r5,60
 2000578:	01007104 	movi	r4,452
 200057c:	20011480 	call	2001148 <UsbWrite>
	UsbWrite(COMM_R1,0x0000);  //port number
 2000580:	000b883a 	mov	r5,zero
 2000584:	01007184 	movi	r4,454
 2000588:	20011480 	call	2001148 <UsbWrite>
	UsbWrite(COMM_R2,0x0000);  //r1
 200058c:	000b883a 	mov	r5,zero
 2000590:	01007204 	movi	r4,456
 2000594:	20011480 	call	2001148 <UsbWrite>
	UsbWrite(COMM_R3,0x0000);  //r1
 2000598:	000b883a 	mov	r5,zero
 200059c:	01007284 	movi	r4,458
 20005a0:	20011480 	call	2001148 <UsbWrite>
	UsbWrite(COMM_R4,0x0000);  //r1
 20005a4:	000b883a 	mov	r5,zero
 20005a8:	01007304 	movi	r4,460
 20005ac:	20011480 	call	2001148 <UsbWrite>
	UsbWrite(COMM_R5,0x0000);  //r1
 20005b0:	000b883a 	mov	r5,zero
 20005b4:	01007384 	movi	r4,462
 20005b8:	20011480 	call	2001148 <UsbWrite>
	UsbWrite(COMM_R6,0x0000);  //r1
 20005bc:	000b883a 	mov	r5,zero
 20005c0:	01007404 	movi	r4,464
 20005c4:	20011480 	call	2001148 <UsbWrite>
	UsbWrite(COMM_R7,0x0000);  //r1
 20005c8:	000b883a 	mov	r5,zero
 20005cc:	01007484 	movi	r4,466
 20005d0:	20011480 	call	2001148 <UsbWrite>
	UsbWrite(COMM_R8,0x0000);  //r1
 20005d4:	000b883a 	mov	r5,zero
 20005d8:	01007504 	movi	r4,468
 20005dc:	20011480 	call	2001148 <UsbWrite>
	UsbWrite(COMM_R9,0x0000);  //r1
 20005e0:	000b883a 	mov	r5,zero
 20005e4:	01007584 	movi	r4,470
 20005e8:	20011480 	call	2001148 <UsbWrite>
	UsbWrite(COMM_R10,0x0000);  //r1
 20005ec:	000b883a 	mov	r5,zero
 20005f0:	01007604 	movi	r4,472
 20005f4:	20011480 	call	2001148 <UsbWrite>
	UsbWrite(COMM_R11,0x0000);  //r1
 20005f8:	000b883a 	mov	r5,zero
 20005fc:	01007684 	movi	r4,474
 2000600:	20011480 	call	2001148 <UsbWrite>
	UsbWrite(COMM_R12,0x0000);  //r1
 2000604:	000b883a 	mov	r5,zero
 2000608:	01007704 	movi	r4,476
 200060c:	20011480 	call	2001148 <UsbWrite>
	UsbWrite(COMM_R13,0x0000);  //r1
 2000610:	000b883a 	mov	r5,zero
 2000614:	01007784 	movi	r4,478
 2000618:	20011480 	call	2001148 <UsbWrite>

	IO_write(HPI_MAILBOX,COMM_EXEC_INT);
 200061c:	01738054 	movui	r5,52737
 2000620:	01000044 	movi	r4,1
 2000624:	20002f40 	call	20002f4 <IO_write>

	while (IO_read(HPI_MAILBOX) != COMM_ACK)
 2000628:	0001883a 	nop
 200062c:	01000044 	movi	r4,1
 2000630:	20003640 	call	2000364 <IO_read>
 2000634:	10bfffcc 	andi	r2,r2,65535
 2000638:	1083fb58 	cmpnei	r2,r2,4077
 200063c:	10000826 	beq	r2,zero,2000660 <main+0x294>
	{
		printf("[ERROR]:routine mailbox data is %x\n",IO_read(HPI_MAILBOX));
 2000640:	01000044 	movi	r4,1
 2000644:	20003640 	call	2000364 <IO_read>
 2000648:	10bfffcc 	andi	r2,r2,65535
 200064c:	100b883a 	mov	r5,r2
 2000650:	01008074 	movhi	r4,513
 2000654:	21068d04 	addi	r4,r4,6708
 2000658:	20022ec0 	call	20022ec <printf>
		goto USB_HOT_PLUG;
 200065c:	003f6606 	br	20003f8 <__alt_data_end+0xff0003f8>
	}
	// STEP 2 end

	ctl_reg = USB1_CTL_REG;
 2000660:	00b02284 	movi	r2,-16246
 2000664:	d0a6cb0d 	sth	r2,-25812(gp)
	no_device = (A_DP_STAT | A_DM_STAT);
 2000668:	008c0004 	movi	r2,12288
 200066c:	d0a6cb8d 	sth	r2,-25810(gp)
	fs_device = A_DP_STAT;
 2000670:	00880004 	movi	r2,8192
 2000674:	e0bffc0d 	sth	r2,-16(fp)
	usb_ctl_val = UsbRead(ctl_reg);
 2000678:	d0a6cb0b 	ldhu	r2,-25812(gp)
 200067c:	10bfffcc 	andi	r2,r2,65535
 2000680:	1009883a 	mov	r4,r2
 2000684:	20011a00 	call	20011a0 <UsbRead>
 2000688:	e0bffb0d 	sth	r2,-20(fp)

	if (!(usb_ctl_val & no_device))
 200068c:	d0a6cb8b 	ldhu	r2,-25810(gp)
 2000690:	e0fffb0b 	ldhu	r3,-20(fp)
 2000694:	1884703a 	and	r2,r3,r2
 2000698:	10bfffcc 	andi	r2,r2,65535
 200069c:	1000351e 	bne	r2,zero,2000774 <main+0x3a8>
	{
		for(hot_plug_count = 0 ; hot_plug_count < 5 ; hot_plug_count++)
 20006a0:	e03ffbc5 	stb	zero,-17(fp)
 20006a4:	00000f06 	br	20006e4 <main+0x318>
		{
			usleep(5*1000);
 20006a8:	0104e204 	movi	r4,5000
 20006ac:	200fa540 	call	200fa54 <usleep>
			usb_ctl_val = UsbRead(ctl_reg);
 20006b0:	d0a6cb0b 	ldhu	r2,-25812(gp)
 20006b4:	10bfffcc 	andi	r2,r2,65535
 20006b8:	1009883a 	mov	r4,r2
 20006bc:	20011a00 	call	20011a0 <UsbRead>
 20006c0:	e0bffb0d 	sth	r2,-20(fp)
			if(usb_ctl_val & no_device) break;
 20006c4:	d0a6cb8b 	ldhu	r2,-25810(gp)
 20006c8:	e0fffb0b 	ldhu	r3,-20(fp)
 20006cc:	1884703a 	and	r2,r3,r2
 20006d0:	10bfffcc 	andi	r2,r2,65535
 20006d4:	1000071e 	bne	r2,zero,20006f4 <main+0x328>
	fs_device = A_DP_STAT;
	usb_ctl_val = UsbRead(ctl_reg);

	if (!(usb_ctl_val & no_device))
	{
		for(hot_plug_count = 0 ; hot_plug_count < 5 ; hot_plug_count++)
 20006d8:	e0bffbc3 	ldbu	r2,-17(fp)
 20006dc:	10800044 	addi	r2,r2,1
 20006e0:	e0bffbc5 	stb	r2,-17(fp)
 20006e4:	e0bffbc3 	ldbu	r2,-17(fp)
 20006e8:	10800170 	cmpltui	r2,r2,5
 20006ec:	103fee1e 	bne	r2,zero,20006a8 <__alt_data_end+0xff0006a8>
 20006f0:	00000106 	br	20006f8 <main+0x32c>
		{
			usleep(5*1000);
			usb_ctl_val = UsbRead(ctl_reg);
			if(usb_ctl_val & no_device) break;
 20006f4:	0001883a 	nop
		}
		if(!(usb_ctl_val & no_device))
 20006f8:	d0a6cb8b 	ldhu	r2,-25810(gp)
 20006fc:	e0fffb0b 	ldhu	r3,-20(fp)
 2000700:	1884703a 	and	r2,r3,r2
 2000704:	10bfffcc 	andi	r2,r2,65535
 2000708:	1000261e 	bne	r2,zero,20007a4 <main+0x3d8>
		{
			printf("\n[INFO]: no device is present in SIE1!\n");
 200070c:	01008074 	movhi	r4,513
 2000710:	21069a04 	addi	r4,r4,6760
 2000714:	20023e80 	call	20023e8 <puts>
			printf("[INFO]: please insert a USB keyboard in SIE1!\n");
 2000718:	01008074 	movhi	r4,513
 200071c:	2106a404 	addi	r4,r4,6800
 2000720:	20023e80 	call	20023e8 <puts>
			while (!(usb_ctl_val & no_device))
 2000724:	00000d06 	br	200075c <main+0x390>
			{
				usb_ctl_val = UsbRead(ctl_reg);
 2000728:	d0a6cb0b 	ldhu	r2,-25812(gp)
 200072c:	10bfffcc 	andi	r2,r2,65535
 2000730:	1009883a 	mov	r4,r2
 2000734:	20011a00 	call	20011a0 <UsbRead>
 2000738:	e0bffb0d 	sth	r2,-20(fp)
				if(usb_ctl_val & no_device)
 200073c:	d0a6cb8b 	ldhu	r2,-25810(gp)
 2000740:	e0fffb0b 	ldhu	r3,-20(fp)
 2000744:	1884703a 	and	r2,r3,r2
 2000748:	10bfffcc 	andi	r2,r2,65535
 200074c:	10000126 	beq	r2,zero,2000754 <main+0x388>
					goto USB_HOT_PLUG;
 2000750:	003f2906 	br	20003f8 <__alt_data_end+0xff0003f8>

				usleep(2000);
 2000754:	0101f404 	movi	r4,2000
 2000758:	200fa540 	call	200fa54 <usleep>
		}
		if(!(usb_ctl_val & no_device))
		{
			printf("\n[INFO]: no device is present in SIE1!\n");
			printf("[INFO]: please insert a USB keyboard in SIE1!\n");
			while (!(usb_ctl_val & no_device))
 200075c:	d0a6cb8b 	ldhu	r2,-25810(gp)
 2000760:	e0fffb0b 	ldhu	r3,-20(fp)
 2000764:	1884703a 	and	r2,r3,r2
 2000768:	10bfffcc 	andi	r2,r2,65535
 200076c:	103fee26 	beq	r2,zero,2000728 <__alt_data_end+0xff000728>
 2000770:	00000c06 	br	20007a4 <main+0x3d8>
		}
	}
	else
	{
		/* check for low speed or full speed by reading D+ and D- lines */
		if (usb_ctl_val & fs_device)
 2000774:	e0fffb0b 	ldhu	r3,-20(fp)
 2000778:	e0bffc0b 	ldhu	r2,-16(fp)
 200077c:	1884703a 	and	r2,r3,r2
 2000780:	10bfffcc 	andi	r2,r2,65535
 2000784:	10000426 	beq	r2,zero,2000798 <main+0x3cc>
		{
			printf("[INFO]: full speed device\n");
 2000788:	01008074 	movhi	r4,513
 200078c:	2106b004 	addi	r4,r4,6848
 2000790:	20023e80 	call	20023e8 <puts>
 2000794:	00000306 	br	20007a4 <main+0x3d8>
		}
		else
		{
			printf("[INFO]: low speed device\n");
 2000798:	01008074 	movhi	r4,513
 200079c:	2106b704 	addi	r4,r4,6876
 20007a0:	20023e80 	call	20023e8 <puts>



	// STEP 3 begin
	//------------------------------------------------------set address -----------------------------------------------------------------
	UsbSetAddress();
 20007a4:	20012980 	call	2001298 <UsbSetAddress>

	while (!(IO_read(HPI_STATUS) & HPI_STATUS_SIE1msg_FLAG) )  //read sie1 msg register
 20007a8:	00000306 	br	20007b8 <main+0x3ec>
	{
		UsbSetAddress();
 20007ac:	20012980 	call	2001298 <UsbSetAddress>
		usleep(10*1000);
 20007b0:	0109c404 	movi	r4,10000
 20007b4:	200fa540 	call	200fa54 <usleep>

	// STEP 3 begin
	//------------------------------------------------------set address -----------------------------------------------------------------
	UsbSetAddress();

	while (!(IO_read(HPI_STATUS) & HPI_STATUS_SIE1msg_FLAG) )  //read sie1 msg register
 20007b8:	010000c4 	movi	r4,3
 20007bc:	20003640 	call	2000364 <IO_read>
 20007c0:	10bfffcc 	andi	r2,r2,65535
 20007c4:	1080040c 	andi	r2,r2,16
 20007c8:	103ff826 	beq	r2,zero,20007ac <__alt_data_end+0xff0007ac>
	{
		UsbSetAddress();
		usleep(10*1000);
	}

	UsbWaitTDListDone();
 20007cc:	20021380 	call	2002138 <UsbWaitTDListDone>

	IO_write(HPI_ADDR,0x0506); // i
 20007d0:	01414184 	movi	r5,1286
 20007d4:	01000084 	movi	r4,2
 20007d8:	20002f40 	call	20002f4 <IO_write>
	printf("[ENUM PROCESS]:step 3 TD Status Byte is %x\n",IO_read(HPI_DATA));
 20007dc:	0009883a 	mov	r4,zero
 20007e0:	20003640 	call	2000364 <IO_read>
 20007e4:	10bfffcc 	andi	r2,r2,65535
 20007e8:	100b883a 	mov	r5,r2
 20007ec:	01008074 	movhi	r4,513
 20007f0:	2106be04 	addi	r4,r4,6904
 20007f4:	20022ec0 	call	20022ec <printf>

	IO_write(HPI_ADDR,0x0508); // n
 20007f8:	01414204 	movi	r5,1288
 20007fc:	01000084 	movi	r4,2
 2000800:	20002f40 	call	20002f4 <IO_write>
	usb_ctl_val = IO_read(HPI_DATA);
 2000804:	0009883a 	mov	r4,zero
 2000808:	20003640 	call	2000364 <IO_read>
 200080c:	e0bffb0d 	sth	r2,-20(fp)
	printf("[ENUM PROCESS]:step 3 TD Control Byte is %x\n",usb_ctl_val);
 2000810:	e0bffb0b 	ldhu	r2,-20(fp)
 2000814:	100b883a 	mov	r5,r2
 2000818:	01008074 	movhi	r4,513
 200081c:	2106c904 	addi	r4,r4,6948
 2000820:	20022ec0 	call	20022ec <printf>
	while (usb_ctl_val != 0x03) // retries occurred
 2000824:	e0bffb0b 	ldhu	r2,-20(fp)
 2000828:	108000e0 	cmpeqi	r2,r2,3
 200082c:	1000031e 	bne	r2,zero,200083c <main+0x470>
	{
		usb_ctl_val = UsbGetRetryCnt();
 2000830:	20021bc0 	call	20021bc <UsbGetRetryCnt>
 2000834:	e0bffb0d 	sth	r2,-20(fp)

		goto USB_HOT_PLUG;
 2000838:	003eef06 	br	20003f8 <__alt_data_end+0xff0003f8>
	}

	printf("------------[ENUM PROCESS]:set address done!---------------\n");
 200083c:	01008074 	movhi	r4,513
 2000840:	2106d504 	addi	r4,r4,6996
 2000844:	20023e80 	call	20023e8 <puts>

	// STEP 4 begin
	//-------------------------------get device descriptor-1 -----------------------------------//
	// TASK: Call the appropriate function for this step.
	UsbGetDeviceDesc1(); 	// Get Device Descriptor -1
 2000848:	20013980 	call	2001398 <UsbGetDeviceDesc1>

	//usleep(10*1000);
	while (!(IO_read(HPI_STATUS) & HPI_STATUS_SIE1msg_FLAG) )  //read sie1 msg register
 200084c:	00000306 	br	200085c <main+0x490>
	{
		// TASK: Call the appropriate function again if it wasn't processed successfully.
		UsbGetDeviceDesc1();
 2000850:	20013980 	call	2001398 <UsbGetDeviceDesc1>
		usleep(10*1000);
 2000854:	0109c404 	movi	r4,10000
 2000858:	200fa540 	call	200fa54 <usleep>
	//-------------------------------get device descriptor-1 -----------------------------------//
	// TASK: Call the appropriate function for this step.
	UsbGetDeviceDesc1(); 	// Get Device Descriptor -1

	//usleep(10*1000);
	while (!(IO_read(HPI_STATUS) & HPI_STATUS_SIE1msg_FLAG) )  //read sie1 msg register
 200085c:	010000c4 	movi	r4,3
 2000860:	20003640 	call	2000364 <IO_read>
 2000864:	10bfffcc 	andi	r2,r2,65535
 2000868:	1080040c 	andi	r2,r2,16
 200086c:	103ff826 	beq	r2,zero,2000850 <__alt_data_end+0xff000850>
		// TASK: Call the appropriate function again if it wasn't processed successfully.
		UsbGetDeviceDesc1();
		usleep(10*1000);
	}

	UsbWaitTDListDone();
 2000870:	20021380 	call	2002138 <UsbWaitTDListDone>

	IO_write(HPI_ADDR,0x0506);
 2000874:	01414184 	movi	r5,1286
 2000878:	01000084 	movi	r4,2
 200087c:	20002f40 	call	20002f4 <IO_write>
	printf("[ENUM PROCESS]:step 4 TD Status Byte is %x\n",IO_read(HPI_DATA));
 2000880:	0009883a 	mov	r4,zero
 2000884:	20003640 	call	2000364 <IO_read>
 2000888:	10bfffcc 	andi	r2,r2,65535
 200088c:	100b883a 	mov	r5,r2
 2000890:	01008074 	movhi	r4,513
 2000894:	2106e404 	addi	r4,r4,7056
 2000898:	20022ec0 	call	20022ec <printf>

	IO_write(HPI_ADDR,0x0508);
 200089c:	01414204 	movi	r5,1288
 20008a0:	01000084 	movi	r4,2
 20008a4:	20002f40 	call	20002f4 <IO_write>
	usb_ctl_val = IO_read(HPI_DATA);
 20008a8:	0009883a 	mov	r4,zero
 20008ac:	20003640 	call	2000364 <IO_read>
 20008b0:	e0bffb0d 	sth	r2,-20(fp)
	printf("[ENUM PROCESS]:step 4 TD Control Byte is %x\n",usb_ctl_val);
 20008b4:	e0bffb0b 	ldhu	r2,-20(fp)
 20008b8:	100b883a 	mov	r5,r2
 20008bc:	01008074 	movhi	r4,513
 20008c0:	2106ef04 	addi	r4,r4,7100
 20008c4:	20022ec0 	call	20022ec <printf>
	while (usb_ctl_val != 0x03)
 20008c8:	00000206 	br	20008d4 <main+0x508>
	{
		usb_ctl_val = UsbGetRetryCnt();
 20008cc:	20021bc0 	call	20021bc <UsbGetRetryCnt>
 20008d0:	e0bffb0d 	sth	r2,-20(fp)
	printf("[ENUM PROCESS]:step 4 TD Status Byte is %x\n",IO_read(HPI_DATA));

	IO_write(HPI_ADDR,0x0508);
	usb_ctl_val = IO_read(HPI_DATA);
	printf("[ENUM PROCESS]:step 4 TD Control Byte is %x\n",usb_ctl_val);
	while (usb_ctl_val != 0x03)
 20008d4:	e0bffb0b 	ldhu	r2,-20(fp)
 20008d8:	108000d8 	cmpnei	r2,r2,3
 20008dc:	103ffb1e 	bne	r2,zero,20008cc <__alt_data_end+0xff0008cc>
	{
		usb_ctl_val = UsbGetRetryCnt();
	}

	printf("---------------[ENUM PROCESS]:get device descriptor-1 done!-----------------\n");
 20008e0:	01008074 	movhi	r4,513
 20008e4:	2106fb04 	addi	r4,r4,7148
 20008e8:	20023e80 	call	20023e8 <puts>


	//--------------------------------get device descriptor-2---------------------------------------------//
	//get device descriptor
	// TASK: Call the appropriate function for this step.
	UsbGetDeviceDesc2(); 	// Get Device Descriptor -2
 20008ec:	20014e00 	call	20014e0 <UsbGetDeviceDesc2>

	//if no message
	while (!(IO_read(HPI_STATUS) & HPI_STATUS_SIE1msg_FLAG) )  //read sie1 msg register
 20008f0:	00000306 	br	2000900 <main+0x534>
	{
		//resend the get device descriptor
		//get device descriptor
		// TASK: Call the appropriate function again if it wasn't processed successfully.
		UsbGetDeviceDesc2();
 20008f4:	20014e00 	call	20014e0 <UsbGetDeviceDesc2>
		usleep(10*1000);
 20008f8:	0109c404 	movi	r4,10000
 20008fc:	200fa540 	call	200fa54 <usleep>
	//get device descriptor
	// TASK: Call the appropriate function for this step.
	UsbGetDeviceDesc2(); 	// Get Device Descriptor -2

	//if no message
	while (!(IO_read(HPI_STATUS) & HPI_STATUS_SIE1msg_FLAG) )  //read sie1 msg register
 2000900:	010000c4 	movi	r4,3
 2000904:	20003640 	call	2000364 <IO_read>
 2000908:	10bfffcc 	andi	r2,r2,65535
 200090c:	1080040c 	andi	r2,r2,16
 2000910:	103ff826 	beq	r2,zero,20008f4 <__alt_data_end+0xff0008f4>
		// TASK: Call the appropriate function again if it wasn't processed successfully.
		UsbGetDeviceDesc2();
		usleep(10*1000);
	}

	UsbWaitTDListDone();
 2000914:	20021380 	call	2002138 <UsbWaitTDListDone>

	IO_write(HPI_ADDR,0x0506);
 2000918:	01414184 	movi	r5,1286
 200091c:	01000084 	movi	r4,2
 2000920:	20002f40 	call	20002f4 <IO_write>
	printf("[ENUM PROCESS]:step 4 TD Status Byte is %x\n",IO_read(HPI_DATA));
 2000924:	0009883a 	mov	r4,zero
 2000928:	20003640 	call	2000364 <IO_read>
 200092c:	10bfffcc 	andi	r2,r2,65535
 2000930:	100b883a 	mov	r5,r2
 2000934:	01008074 	movhi	r4,513
 2000938:	2106e404 	addi	r4,r4,7056
 200093c:	20022ec0 	call	20022ec <printf>

	IO_write(HPI_ADDR,0x0508);
 2000940:	01414204 	movi	r5,1288
 2000944:	01000084 	movi	r4,2
 2000948:	20002f40 	call	20002f4 <IO_write>
	usb_ctl_val = IO_read(HPI_DATA);
 200094c:	0009883a 	mov	r4,zero
 2000950:	20003640 	call	2000364 <IO_read>
 2000954:	e0bffb0d 	sth	r2,-20(fp)
	printf("[ENUM PROCESS]:step 4 TD Control Byte is %x\n",usb_ctl_val);
 2000958:	e0bffb0b 	ldhu	r2,-20(fp)
 200095c:	100b883a 	mov	r5,r2
 2000960:	01008074 	movhi	r4,513
 2000964:	2106ef04 	addi	r4,r4,7100
 2000968:	20022ec0 	call	20022ec <printf>
	while (usb_ctl_val != 0x03)
 200096c:	00000206 	br	2000978 <main+0x5ac>
	{
		usb_ctl_val = UsbGetRetryCnt();
 2000970:	20021bc0 	call	20021bc <UsbGetRetryCnt>
 2000974:	e0bffb0d 	sth	r2,-20(fp)
	printf("[ENUM PROCESS]:step 4 TD Status Byte is %x\n",IO_read(HPI_DATA));

	IO_write(HPI_ADDR,0x0508);
	usb_ctl_val = IO_read(HPI_DATA);
	printf("[ENUM PROCESS]:step 4 TD Control Byte is %x\n",usb_ctl_val);
	while (usb_ctl_val != 0x03)
 2000978:	e0bffb0b 	ldhu	r2,-20(fp)
 200097c:	108000d8 	cmpnei	r2,r2,3
 2000980:	103ffb1e 	bne	r2,zero,2000970 <__alt_data_end+0xff000970>
	{
		usb_ctl_val = UsbGetRetryCnt();
	}

	printf("------------[ENUM PROCESS]:get device descriptor-2 done!--------------\n");
 2000984:	01008074 	movhi	r4,513
 2000988:	21070f04 	addi	r4,r4,7228
 200098c:	20023e80 	call	20023e8 <puts>


	// STEP 5 begin
	//-----------------------------------get configuration descriptor -1 ----------------------------------//
	// TASK: Call the appropriate function for this step.
	UsbGetConfigDesc1(); 	// Get Configuration Descriptor -1
 2000990:	20016b80 	call	20016b8 <UsbGetConfigDesc1>

	//if no message
	while (!(IO_read(HPI_STATUS) & HPI_STATUS_SIE1msg_FLAG) )  //read sie1 msg register
 2000994:	00000306 	br	20009a4 <main+0x5d8>
	{
		//resend the get device descriptor
		//get device descriptor

		// TASK: Call the appropriate function again if it wasn't processed successfully.
		UsbGetConfigDesc1();
 2000998:	20016b80 	call	20016b8 <UsbGetConfigDesc1>
		usleep(10*1000);
 200099c:	0109c404 	movi	r4,10000
 20009a0:	200fa540 	call	200fa54 <usleep>
	//-----------------------------------get configuration descriptor -1 ----------------------------------//
	// TASK: Call the appropriate function for this step.
	UsbGetConfigDesc1(); 	// Get Configuration Descriptor -1

	//if no message
	while (!(IO_read(HPI_STATUS) & HPI_STATUS_SIE1msg_FLAG) )  //read sie1 msg register
 20009a4:	010000c4 	movi	r4,3
 20009a8:	20003640 	call	2000364 <IO_read>
 20009ac:	10bfffcc 	andi	r2,r2,65535
 20009b0:	1080040c 	andi	r2,r2,16
 20009b4:	103ff826 	beq	r2,zero,2000998 <__alt_data_end+0xff000998>
		// TASK: Call the appropriate function again if it wasn't processed successfully.
		UsbGetConfigDesc1();
		usleep(10*1000);
	}

	UsbWaitTDListDone();
 20009b8:	20021380 	call	2002138 <UsbWaitTDListDone>

	IO_write(HPI_ADDR,0x0506);
 20009bc:	01414184 	movi	r5,1286
 20009c0:	01000084 	movi	r4,2
 20009c4:	20002f40 	call	20002f4 <IO_write>
	printf("[ENUM PROCESS]:step 5 TD Status Byte is %x\n",IO_read(HPI_DATA));
 20009c8:	0009883a 	mov	r4,zero
 20009cc:	20003640 	call	2000364 <IO_read>
 20009d0:	10bfffcc 	andi	r2,r2,65535
 20009d4:	100b883a 	mov	r5,r2
 20009d8:	01008074 	movhi	r4,513
 20009dc:	21072104 	addi	r4,r4,7300
 20009e0:	20022ec0 	call	20022ec <printf>

	IO_write(HPI_ADDR,0x0508);
 20009e4:	01414204 	movi	r5,1288
 20009e8:	01000084 	movi	r4,2
 20009ec:	20002f40 	call	20002f4 <IO_write>
	usb_ctl_val = IO_read(HPI_DATA);
 20009f0:	0009883a 	mov	r4,zero
 20009f4:	20003640 	call	2000364 <IO_read>
 20009f8:	e0bffb0d 	sth	r2,-20(fp)
	printf("[ENUM PROCESS]:step 5 TD Control Byte is %x\n",usb_ctl_val);
 20009fc:	e0bffb0b 	ldhu	r2,-20(fp)
 2000a00:	100b883a 	mov	r5,r2
 2000a04:	01008074 	movhi	r4,513
 2000a08:	21072c04 	addi	r4,r4,7344
 2000a0c:	20022ec0 	call	20022ec <printf>
	while (usb_ctl_val != 0x03)
 2000a10:	00000206 	br	2000a1c <main+0x650>
	{
		usb_ctl_val = UsbGetRetryCnt();
 2000a14:	20021bc0 	call	20021bc <UsbGetRetryCnt>
 2000a18:	e0bffb0d 	sth	r2,-20(fp)
	printf("[ENUM PROCESS]:step 5 TD Status Byte is %x\n",IO_read(HPI_DATA));

	IO_write(HPI_ADDR,0x0508);
	usb_ctl_val = IO_read(HPI_DATA);
	printf("[ENUM PROCESS]:step 5 TD Control Byte is %x\n",usb_ctl_val);
	while (usb_ctl_val != 0x03)
 2000a1c:	e0bffb0b 	ldhu	r2,-20(fp)
 2000a20:	108000d8 	cmpnei	r2,r2,3
 2000a24:	103ffb1e 	bne	r2,zero,2000a14 <__alt_data_end+0xff000a14>
	{
		usb_ctl_val = UsbGetRetryCnt();
	}
	printf("------------[ENUM PROCESS]:get configuration descriptor-1 pass------------\n");
 2000a28:	01008074 	movhi	r4,513
 2000a2c:	21073804 	addi	r4,r4,7392
 2000a30:	20023e80 	call	20023e8 <puts>

	// STEP 6 begin
	//-----------------------------------get configuration descriptor-2------------------------------------//
	//get device descriptor
	// TASK: Call the appropriate function for this step.
	UsbGetConfigDesc2(); 	// Get Configuration Descriptor -2
 2000a34:	20018480 	call	2001848 <UsbGetConfigDesc2>

	usleep(100*1000);
 2000a38:	010000b4 	movhi	r4,2
 2000a3c:	2121a804 	addi	r4,r4,-31072
 2000a40:	200fa540 	call	200fa54 <usleep>
	//if no message
	while (!(IO_read(HPI_STATUS) & HPI_STATUS_SIE1msg_FLAG) )  //read sie1 msg register
 2000a44:	00000306 	br	2000a54 <main+0x688>
	{
		// TASK: Call the appropriate function again if it wasn't processed successfully.
		UsbGetConfigDesc2();
 2000a48:	20018480 	call	2001848 <UsbGetConfigDesc2>
		usleep(10*1000);
 2000a4c:	0109c404 	movi	r4,10000
 2000a50:	200fa540 	call	200fa54 <usleep>
	// TASK: Call the appropriate function for this step.
	UsbGetConfigDesc2(); 	// Get Configuration Descriptor -2

	usleep(100*1000);
	//if no message
	while (!(IO_read(HPI_STATUS) & HPI_STATUS_SIE1msg_FLAG) )  //read sie1 msg register
 2000a54:	010000c4 	movi	r4,3
 2000a58:	20003640 	call	2000364 <IO_read>
 2000a5c:	10bfffcc 	andi	r2,r2,65535
 2000a60:	1080040c 	andi	r2,r2,16
 2000a64:	103ff826 	beq	r2,zero,2000a48 <__alt_data_end+0xff000a48>
		// TASK: Call the appropriate function again if it wasn't processed successfully.
		UsbGetConfigDesc2();
		usleep(10*1000);
	}

	UsbWaitTDListDone();
 2000a68:	20021380 	call	2002138 <UsbWaitTDListDone>

	IO_write(HPI_ADDR,0x0506);
 2000a6c:	01414184 	movi	r5,1286
 2000a70:	01000084 	movi	r4,2
 2000a74:	20002f40 	call	20002f4 <IO_write>
	printf("[ENUM PROCESS]:step 6 TD Status Byte is %x\n",IO_read(HPI_DATA));
 2000a78:	0009883a 	mov	r4,zero
 2000a7c:	20003640 	call	2000364 <IO_read>
 2000a80:	10bfffcc 	andi	r2,r2,65535
 2000a84:	100b883a 	mov	r5,r2
 2000a88:	01008074 	movhi	r4,513
 2000a8c:	21074b04 	addi	r4,r4,7468
 2000a90:	20022ec0 	call	20022ec <printf>

	IO_write(HPI_ADDR,0x0508);
 2000a94:	01414204 	movi	r5,1288
 2000a98:	01000084 	movi	r4,2
 2000a9c:	20002f40 	call	20002f4 <IO_write>
	usb_ctl_val = IO_read(HPI_DATA);
 2000aa0:	0009883a 	mov	r4,zero
 2000aa4:	20003640 	call	2000364 <IO_read>
 2000aa8:	e0bffb0d 	sth	r2,-20(fp)
	printf("[ENUM PROCESS]:step 6 TD Control Byte is %x\n",usb_ctl_val);
 2000aac:	e0bffb0b 	ldhu	r2,-20(fp)
 2000ab0:	100b883a 	mov	r5,r2
 2000ab4:	01008074 	movhi	r4,513
 2000ab8:	21075604 	addi	r4,r4,7512
 2000abc:	20022ec0 	call	20022ec <printf>
	while (usb_ctl_val != 0x03)
 2000ac0:	00000206 	br	2000acc <main+0x700>
	{
		usb_ctl_val = UsbGetRetryCnt();
 2000ac4:	20021bc0 	call	20021bc <UsbGetRetryCnt>
 2000ac8:	e0bffb0d 	sth	r2,-20(fp)
	printf("[ENUM PROCESS]:step 6 TD Status Byte is %x\n",IO_read(HPI_DATA));

	IO_write(HPI_ADDR,0x0508);
	usb_ctl_val = IO_read(HPI_DATA);
	printf("[ENUM PROCESS]:step 6 TD Control Byte is %x\n",usb_ctl_val);
	while (usb_ctl_val != 0x03)
 2000acc:	e0bffb0b 	ldhu	r2,-20(fp)
 2000ad0:	108000d8 	cmpnei	r2,r2,3
 2000ad4:	103ffb1e 	bne	r2,zero,2000ac4 <__alt_data_end+0xff000ac4>
	{
		usb_ctl_val = UsbGetRetryCnt();
	}


	printf("-----------[ENUM PROCESS]:get configuration descriptor-2 done!------------\n");
 2000ad8:	01008074 	movhi	r4,513
 2000adc:	21076204 	addi	r4,r4,7560
 2000ae0:	20023e80 	call	20023e8 <puts>


	// ---------------------------------get device info---------------------------------------------//

	// TASK: Write the address to read from the memory for byte 7 of the interface descriptor to HPI_ADDR.
	IO_write(HPI_ADDR,0x056c);
 2000ae4:	01415b04 	movi	r5,1388
 2000ae8:	01000084 	movi	r4,2
 2000aec:	20002f40 	call	20002f4 <IO_write>
	code = IO_read(HPI_DATA);
 2000af0:	0009883a 	mov	r4,zero
 2000af4:	20003640 	call	2000364 <IO_read>
 2000af8:	e0bffe8d 	sth	r2,-6(fp)
	code = code & 0x003;
 2000afc:	e0bffe8b 	ldhu	r2,-6(fp)
 2000b00:	108000cc 	andi	r2,r2,3
 2000b04:	e0bffe8d 	sth	r2,-6(fp)
	printf("\ncode = %x\n", code);
 2000b08:	e0bffe8b 	ldhu	r2,-6(fp)
 2000b0c:	100b883a 	mov	r5,r2
 2000b10:	01008074 	movhi	r4,513
 2000b14:	21077504 	addi	r4,r4,7636
 2000b18:	20022ec0 	call	20022ec <printf>

	if (code == 0x01)
 2000b1c:	e0bffe8b 	ldhu	r2,-6(fp)
 2000b20:	10800058 	cmpnei	r2,r2,1
 2000b24:	1000041e 	bne	r2,zero,2000b38 <main+0x76c>
	{
		printf("\n[INFO]:check TD rec data7 \n[INFO]:Keyboard Detected!!!\n\n");
 2000b28:	01008074 	movhi	r4,513
 2000b2c:	21077804 	addi	r4,r4,7648
 2000b30:	20023e80 	call	20023e8 <puts>
 2000b34:	00000306 	br	2000b44 <main+0x778>
	}
	else
	{
		printf("\n[INFO]:Keyboard Not Detected!!! \n\n");
 2000b38:	01008074 	movhi	r4,513
 2000b3c:	21078704 	addi	r4,r4,7708
 2000b40:	20023e80 	call	20023e8 <puts>
	}

	// TASK: Write the address to read from the memory for the endpoint descriptor to HPI_ADDR.

	IO_write(HPI_ADDR,0x0576);
 2000b44:	01415d84 	movi	r5,1398
 2000b48:	01000084 	movi	r4,2
 2000b4c:	20002f40 	call	20002f4 <IO_write>
	IO_write(HPI_DATA,0x073F);
 2000b50:	0141cfc4 	movi	r5,1855
 2000b54:	0009883a 	mov	r4,zero
 2000b58:	20002f40 	call	20002f4 <IO_write>
	IO_write(HPI_DATA,0x8105);
 2000b5c:	01604154 	movui	r5,33029
 2000b60:	0009883a 	mov	r4,zero
 2000b64:	20002f40 	call	20002f4 <IO_write>
	IO_write(HPI_DATA,0x0003);
 2000b68:	014000c4 	movi	r5,3
 2000b6c:	0009883a 	mov	r4,zero
 2000b70:	20002f40 	call	20002f4 <IO_write>
	IO_write(HPI_DATA,0x0008);
 2000b74:	01400204 	movi	r5,8
 2000b78:	0009883a 	mov	r4,zero
 2000b7c:	20002f40 	call	20002f4 <IO_write>
	IO_write(HPI_DATA,0xAC0A);
 2000b80:	016b0294 	movui	r5,44042
 2000b84:	0009883a 	mov	r4,zero
 2000b88:	20002f40 	call	20002f4 <IO_write>
	UsbWrite(HUSB_SIE1_pCurrentTDPtr,0x0576); //HUSB_SIE1_pCurrentTDPtr
 2000b8c:	01415d84 	movi	r5,1398
 2000b90:	01006c04 	movi	r4,432
 2000b94:	20011480 	call	2001148 <UsbWrite>

	//data_size = (IO_read(HPI_DATA)>>8)&0x0ff;
	//data_size = 0x08;//(IO_read(HPI_DATA))&0x0ff;
	//UsbPrintMem();
	IO_write(HPI_ADDR,0x057c);
 2000b98:	01415f04 	movi	r5,1404
 2000b9c:	01000084 	movi	r4,2
 2000ba0:	20002f40 	call	20002f4 <IO_write>
	data_size = (IO_read(HPI_DATA))&0x0ff;
 2000ba4:	0009883a 	mov	r4,zero
 2000ba8:	20003640 	call	2000364 <IO_read>
 2000bac:	e0bfff05 	stb	r2,-4(fp)
	printf("[ENUM PROCESS]:data packet size is %d\n",data_size);
 2000bb0:	e0bfff03 	ldbu	r2,-4(fp)
 2000bb4:	100b883a 	mov	r5,r2
 2000bb8:	01008074 	movhi	r4,513
 2000bbc:	21079004 	addi	r4,r4,7744
 2000bc0:	20022ec0 	call	20022ec <printf>
	// STEP 7 begin
	//------------------------------------set configuration -----------------------------------------//
	// TASK: Call the appropriate function for this step.
	UsbSetConfig();		// Set Configuration
 2000bc4:	2001ab00 	call	2001ab0 <UsbSetConfig>

	while (!(IO_read(HPI_STATUS) & HPI_STATUS_SIE1msg_FLAG) )  //read sie1 msg register
 2000bc8:	00000306 	br	2000bd8 <main+0x80c>
	{
		// TASK: Call the appropriate function again if it wasn't processed successfully.
		UsbSetConfig();		// Set Configuration
 2000bcc:	2001ab00 	call	2001ab0 <UsbSetConfig>
		usleep(10*1000);
 2000bd0:	0109c404 	movi	r4,10000
 2000bd4:	200fa540 	call	200fa54 <usleep>
	// STEP 7 begin
	//------------------------------------set configuration -----------------------------------------//
	// TASK: Call the appropriate function for this step.
	UsbSetConfig();		// Set Configuration

	while (!(IO_read(HPI_STATUS) & HPI_STATUS_SIE1msg_FLAG) )  //read sie1 msg register
 2000bd8:	010000c4 	movi	r4,3
 2000bdc:	20003640 	call	2000364 <IO_read>
 2000be0:	10bfffcc 	andi	r2,r2,65535
 2000be4:	1080040c 	andi	r2,r2,16
 2000be8:	103ff826 	beq	r2,zero,2000bcc <__alt_data_end+0xff000bcc>
		// TASK: Call the appropriate function again if it wasn't processed successfully.
		UsbSetConfig();		// Set Configuration
		usleep(10*1000);
	}

	UsbWaitTDListDone();
 2000bec:	20021380 	call	2002138 <UsbWaitTDListDone>

	IO_write(HPI_ADDR,0x0506);
 2000bf0:	01414184 	movi	r5,1286
 2000bf4:	01000084 	movi	r4,2
 2000bf8:	20002f40 	call	20002f4 <IO_write>
	printf("[ENUM PROCESS]:step 7 TD Status Byte is %x\n",IO_read(HPI_DATA));
 2000bfc:	0009883a 	mov	r4,zero
 2000c00:	20003640 	call	2000364 <IO_read>
 2000c04:	10bfffcc 	andi	r2,r2,65535
 2000c08:	100b883a 	mov	r5,r2
 2000c0c:	01008074 	movhi	r4,513
 2000c10:	21079a04 	addi	r4,r4,7784
 2000c14:	20022ec0 	call	20022ec <printf>

	IO_write(HPI_ADDR,0x0508);
 2000c18:	01414204 	movi	r5,1288
 2000c1c:	01000084 	movi	r4,2
 2000c20:	20002f40 	call	20002f4 <IO_write>
	usb_ctl_val = IO_read(HPI_DATA);
 2000c24:	0009883a 	mov	r4,zero
 2000c28:	20003640 	call	2000364 <IO_read>
 2000c2c:	e0bffb0d 	sth	r2,-20(fp)
	printf("[ENUM PROCESS]:step 7 TD Control Byte is %x\n",usb_ctl_val);
 2000c30:	e0bffb0b 	ldhu	r2,-20(fp)
 2000c34:	100b883a 	mov	r5,r2
 2000c38:	01008074 	movhi	r4,513
 2000c3c:	2107a504 	addi	r4,r4,7828
 2000c40:	20022ec0 	call	20022ec <printf>
	while (usb_ctl_val != 0x03)
 2000c44:	00000206 	br	2000c50 <main+0x884>
	{
		usb_ctl_val = UsbGetRetryCnt();
 2000c48:	20021bc0 	call	20021bc <UsbGetRetryCnt>
 2000c4c:	e0bffb0d 	sth	r2,-20(fp)
	printf("[ENUM PROCESS]:step 7 TD Status Byte is %x\n",IO_read(HPI_DATA));

	IO_write(HPI_ADDR,0x0508);
	usb_ctl_val = IO_read(HPI_DATA);
	printf("[ENUM PROCESS]:step 7 TD Control Byte is %x\n",usb_ctl_val);
	while (usb_ctl_val != 0x03)
 2000c50:	e0bffb0b 	ldhu	r2,-20(fp)
 2000c54:	108000d8 	cmpnei	r2,r2,3
 2000c58:	103ffb1e 	bne	r2,zero,2000c48 <__alt_data_end+0xff000c48>
	{
		usb_ctl_val = UsbGetRetryCnt();
	}

	printf("------------[ENUM PROCESS]:set configuration done!-------------------\n");
 2000c5c:	01008074 	movhi	r4,513
 2000c60:	2107b104 	addi	r4,r4,7876
 2000c64:	20023e80 	call	20023e8 <puts>

	//----------------------------------------------class request out ------------------------------------------//
	// TASK: Call the appropriate function for this step.
	UsbClassRequest();
 2000c68:	2001bb00 	call	2001bb0 <UsbClassRequest>

	while (!(IO_read(HPI_STATUS) & HPI_STATUS_SIE1msg_FLAG) )  //read sie1 msg register
 2000c6c:	00000306 	br	2000c7c <main+0x8b0>
	{
		// TASK: Call the appropriate function again if it wasn't processed successfully.
		UsbClassRequest();
 2000c70:	2001bb00 	call	2001bb0 <UsbClassRequest>
		usleep(10*1000);
 2000c74:	0109c404 	movi	r4,10000
 2000c78:	200fa540 	call	200fa54 <usleep>

	//----------------------------------------------class request out ------------------------------------------//
	// TASK: Call the appropriate function for this step.
	UsbClassRequest();

	while (!(IO_read(HPI_STATUS) & HPI_STATUS_SIE1msg_FLAG) )  //read sie1 msg register
 2000c7c:	010000c4 	movi	r4,3
 2000c80:	20003640 	call	2000364 <IO_read>
 2000c84:	10bfffcc 	andi	r2,r2,65535
 2000c88:	1080040c 	andi	r2,r2,16
 2000c8c:	103ff826 	beq	r2,zero,2000c70 <__alt_data_end+0xff000c70>
		// TASK: Call the appropriate function again if it wasn't processed successfully.
		UsbClassRequest();
		usleep(10*1000);
	}

	UsbWaitTDListDone();
 2000c90:	20021380 	call	2002138 <UsbWaitTDListDone>

	IO_write(HPI_ADDR,0x0506);
 2000c94:	01414184 	movi	r5,1286
 2000c98:	01000084 	movi	r4,2
 2000c9c:	20002f40 	call	20002f4 <IO_write>
	printf("[ENUM PROCESS]:step 8 TD Status Byte is %x\n",IO_read(HPI_DATA));
 2000ca0:	0009883a 	mov	r4,zero
 2000ca4:	20003640 	call	2000364 <IO_read>
 2000ca8:	10bfffcc 	andi	r2,r2,65535
 2000cac:	100b883a 	mov	r5,r2
 2000cb0:	01008074 	movhi	r4,513
 2000cb4:	2107c304 	addi	r4,r4,7948
 2000cb8:	20022ec0 	call	20022ec <printf>

	IO_write(HPI_ADDR,0x0508);
 2000cbc:	01414204 	movi	r5,1288
 2000cc0:	01000084 	movi	r4,2
 2000cc4:	20002f40 	call	20002f4 <IO_write>
	usb_ctl_val = IO_read(HPI_DATA);
 2000cc8:	0009883a 	mov	r4,zero
 2000ccc:	20003640 	call	2000364 <IO_read>
 2000cd0:	e0bffb0d 	sth	r2,-20(fp)
	printf("[ENUM PROCESS]:step 8 TD Control Byte is %x\n",usb_ctl_val);
 2000cd4:	e0bffb0b 	ldhu	r2,-20(fp)
 2000cd8:	100b883a 	mov	r5,r2
 2000cdc:	01008074 	movhi	r4,513
 2000ce0:	2107ce04 	addi	r4,r4,7992
 2000ce4:	20022ec0 	call	20022ec <printf>
	while (usb_ctl_val != 0x03)
 2000ce8:	00000206 	br	2000cf4 <main+0x928>
	{
		usb_ctl_val = UsbGetRetryCnt();
 2000cec:	20021bc0 	call	20021bc <UsbGetRetryCnt>
 2000cf0:	e0bffb0d 	sth	r2,-20(fp)
	printf("[ENUM PROCESS]:step 8 TD Status Byte is %x\n",IO_read(HPI_DATA));

	IO_write(HPI_ADDR,0x0508);
	usb_ctl_val = IO_read(HPI_DATA);
	printf("[ENUM PROCESS]:step 8 TD Control Byte is %x\n",usb_ctl_val);
	while (usb_ctl_val != 0x03)
 2000cf4:	e0bffb0b 	ldhu	r2,-20(fp)
 2000cf8:	108000d8 	cmpnei	r2,r2,3
 2000cfc:	103ffb1e 	bne	r2,zero,2000cec <__alt_data_end+0xff000cec>
	{
		usb_ctl_val = UsbGetRetryCnt();
	}


	printf("------------[ENUM PROCESS]:class request out done!-------------------\n");
 2000d00:	01008074 	movhi	r4,513
 2000d04:	2107da04 	addi	r4,r4,8040
 2000d08:	20023e80 	call	20023e8 <puts>

	// STEP 8 begin
	//----------------------------------get descriptor(class 0x21 = HID) request out --------------------------------//
	// TASK: Call the appropriate function for this step.
	UsbGetHidDesc();
 2000d0c:	2001cb00 	call	2001cb0 <UsbGetHidDesc>

	while (!(IO_read(HPI_STATUS) & HPI_STATUS_SIE1msg_FLAG) )  //read sie1 msg register
 2000d10:	00000306 	br	2000d20 <main+0x954>
	{
		// TASK: Call the appropriate function again if it wasn't processed successfully.
		UsbGetHidDesc();
 2000d14:	2001cb00 	call	2001cb0 <UsbGetHidDesc>
		usleep(10*1000);
 2000d18:	0109c404 	movi	r4,10000
 2000d1c:	200fa540 	call	200fa54 <usleep>
	// STEP 8 begin
	//----------------------------------get descriptor(class 0x21 = HID) request out --------------------------------//
	// TASK: Call the appropriate function for this step.
	UsbGetHidDesc();

	while (!(IO_read(HPI_STATUS) & HPI_STATUS_SIE1msg_FLAG) )  //read sie1 msg register
 2000d20:	010000c4 	movi	r4,3
 2000d24:	20003640 	call	2000364 <IO_read>
 2000d28:	10bfffcc 	andi	r2,r2,65535
 2000d2c:	1080040c 	andi	r2,r2,16
 2000d30:	103ff826 	beq	r2,zero,2000d14 <__alt_data_end+0xff000d14>
		// TASK: Call the appropriate function again if it wasn't processed successfully.
		UsbGetHidDesc();
		usleep(10*1000);
	}

	UsbWaitTDListDone();
 2000d34:	20021380 	call	2002138 <UsbWaitTDListDone>

	IO_write(HPI_ADDR,0x0506);
 2000d38:	01414184 	movi	r5,1286
 2000d3c:	01000084 	movi	r4,2
 2000d40:	20002f40 	call	20002f4 <IO_write>
	printf("[ENUM PROCESS]:step 8 TD Status Byte is %x\n",IO_read(HPI_DATA));
 2000d44:	0009883a 	mov	r4,zero
 2000d48:	20003640 	call	2000364 <IO_read>
 2000d4c:	10bfffcc 	andi	r2,r2,65535
 2000d50:	100b883a 	mov	r5,r2
 2000d54:	01008074 	movhi	r4,513
 2000d58:	2107c304 	addi	r4,r4,7948
 2000d5c:	20022ec0 	call	20022ec <printf>

	IO_write(HPI_ADDR,0x0508);
 2000d60:	01414204 	movi	r5,1288
 2000d64:	01000084 	movi	r4,2
 2000d68:	20002f40 	call	20002f4 <IO_write>
	usb_ctl_val = IO_read(HPI_DATA);
 2000d6c:	0009883a 	mov	r4,zero
 2000d70:	20003640 	call	2000364 <IO_read>
 2000d74:	e0bffb0d 	sth	r2,-20(fp)
	printf("[ENUM PROCESS]:step 8 TD Control Byte is %x\n",usb_ctl_val);
 2000d78:	e0bffb0b 	ldhu	r2,-20(fp)
 2000d7c:	100b883a 	mov	r5,r2
 2000d80:	01008074 	movhi	r4,513
 2000d84:	2107ce04 	addi	r4,r4,7992
 2000d88:	20022ec0 	call	20022ec <printf>
	while (usb_ctl_val != 0x03)
 2000d8c:	00000206 	br	2000d98 <main+0x9cc>
	{
		usb_ctl_val = UsbGetRetryCnt();
 2000d90:	20021bc0 	call	20021bc <UsbGetRetryCnt>
 2000d94:	e0bffb0d 	sth	r2,-20(fp)
	printf("[ENUM PROCESS]:step 8 TD Status Byte is %x\n",IO_read(HPI_DATA));

	IO_write(HPI_ADDR,0x0508);
	usb_ctl_val = IO_read(HPI_DATA);
	printf("[ENUM PROCESS]:step 8 TD Control Byte is %x\n",usb_ctl_val);
	while (usb_ctl_val != 0x03)
 2000d98:	e0bffb0b 	ldhu	r2,-20(fp)
 2000d9c:	108000d8 	cmpnei	r2,r2,3
 2000da0:	103ffb1e 	bne	r2,zero,2000d90 <__alt_data_end+0xff000d90>
	{
		usb_ctl_val = UsbGetRetryCnt();
	}

	printf("------------[ENUM PROCESS]:get descriptor (class 0x21) done!-------------------\n");
 2000da4:	01008074 	movhi	r4,513
 2000da8:	2107ec04 	addi	r4,r4,8112
 2000dac:	20023e80 	call	20023e8 <puts>

	// STEP 9 begin
	//-------------------------------get descriptor (class 0x22 = report)-------------------------------------------//
	// TASK: Call the appropriate function for this step.
	UsbGetReportDesc();
 2000db0:	2001df80 	call	2001df8 <UsbGetReportDesc>
	//if no message
	while (!(IO_read(HPI_STATUS) & HPI_STATUS_SIE1msg_FLAG) )  //read sie1 msg register
 2000db4:	00000306 	br	2000dc4 <main+0x9f8>
	{
		// TASK: Call the appropriate function again if it wasn't processed successfully.
		UsbGetReportDesc();
 2000db8:	2001df80 	call	2001df8 <UsbGetReportDesc>
		usleep(10*1000);
 2000dbc:	0109c404 	movi	r4,10000
 2000dc0:	200fa540 	call	200fa54 <usleep>
	// STEP 9 begin
	//-------------------------------get descriptor (class 0x22 = report)-------------------------------------------//
	// TASK: Call the appropriate function for this step.
	UsbGetReportDesc();
	//if no message
	while (!(IO_read(HPI_STATUS) & HPI_STATUS_SIE1msg_FLAG) )  //read sie1 msg register
 2000dc4:	010000c4 	movi	r4,3
 2000dc8:	20003640 	call	2000364 <IO_read>
 2000dcc:	10bfffcc 	andi	r2,r2,65535
 2000dd0:	1080040c 	andi	r2,r2,16
 2000dd4:	103ff826 	beq	r2,zero,2000db8 <__alt_data_end+0xff000db8>
		// TASK: Call the appropriate function again if it wasn't processed successfully.
		UsbGetReportDesc();
		usleep(10*1000);
	}

	UsbWaitTDListDone();
 2000dd8:	20021380 	call	2002138 <UsbWaitTDListDone>

	IO_write(HPI_ADDR,0x0506);
 2000ddc:	01414184 	movi	r5,1286
 2000de0:	01000084 	movi	r4,2
 2000de4:	20002f40 	call	20002f4 <IO_write>
	printf("[ENUM PROCESS]: step 9 TD Status Byte is %x\n",IO_read(HPI_DATA));
 2000de8:	0009883a 	mov	r4,zero
 2000dec:	20003640 	call	2000364 <IO_read>
 2000df0:	10bfffcc 	andi	r2,r2,65535
 2000df4:	100b883a 	mov	r5,r2
 2000df8:	01008074 	movhi	r4,513
 2000dfc:	21080004 	addi	r4,r4,8192
 2000e00:	20022ec0 	call	20022ec <printf>

	IO_write(HPI_ADDR,0x0508);
 2000e04:	01414204 	movi	r5,1288
 2000e08:	01000084 	movi	r4,2
 2000e0c:	20002f40 	call	20002f4 <IO_write>
	usb_ctl_val = IO_read(HPI_DATA);
 2000e10:	0009883a 	mov	r4,zero
 2000e14:	20003640 	call	2000364 <IO_read>
 2000e18:	e0bffb0d 	sth	r2,-20(fp)
	printf("[ENUM PROCESS]: step 9 TD Control Byte is %x\n",usb_ctl_val);
 2000e1c:	e0bffb0b 	ldhu	r2,-20(fp)
 2000e20:	100b883a 	mov	r5,r2
 2000e24:	01008074 	movhi	r4,513
 2000e28:	21080c04 	addi	r4,r4,8240
 2000e2c:	20022ec0 	call	20022ec <printf>
	while (usb_ctl_val != 0x03)
 2000e30:	00000206 	br	2000e3c <main+0xa70>
	{
		usb_ctl_val = UsbGetRetryCnt();
 2000e34:	20021bc0 	call	20021bc <UsbGetRetryCnt>
 2000e38:	e0bffb0d 	sth	r2,-20(fp)
	printf("[ENUM PROCESS]: step 9 TD Status Byte is %x\n",IO_read(HPI_DATA));

	IO_write(HPI_ADDR,0x0508);
	usb_ctl_val = IO_read(HPI_DATA);
	printf("[ENUM PROCESS]: step 9 TD Control Byte is %x\n",usb_ctl_val);
	while (usb_ctl_val != 0x03)
 2000e3c:	e0bffb0b 	ldhu	r2,-20(fp)
 2000e40:	108000d8 	cmpnei	r2,r2,3
 2000e44:	103ffb1e 	bne	r2,zero,2000e34 <__alt_data_end+0xff000e34>
	{
		usb_ctl_val = UsbGetRetryCnt();
	}

	printf("---------------[ENUM PROCESS]:get descriptor (class 0x22) done!----------------\n");
 2000e48:	01008074 	movhi	r4,513
 2000e4c:	21081804 	addi	r4,r4,8288
 2000e50:	20023e80 	call	20023e8 <puts>



	//-----------------------------------get keycode value------------------------------------------------//
	usleep(10000);
 2000e54:	0109c404 	movi	r4,10000
 2000e58:	200fa540 	call	200fa54 <usleep>
	while(1)
	{
		toggle++;
 2000e5c:	e0bffb83 	ldbu	r2,-18(fp)
 2000e60:	10800044 	addi	r2,r2,1
 2000e64:	e0bffb85 	stb	r2,-18(fp)
		IO_write(HPI_ADDR,0x0500); //the start address
 2000e68:	01414004 	movi	r5,1280
 2000e6c:	01000084 	movi	r4,2
 2000e70:	20002f40 	call	20002f4 <IO_write>
		//data phase IN-1
		IO_write(HPI_DATA,0x051c); //500
 2000e74:	01414704 	movi	r5,1308
 2000e78:	0009883a 	mov	r4,zero
 2000e7c:	20002f40 	call	20002f4 <IO_write>

		IO_write(HPI_DATA,0x000f & data_size);//2 data length
 2000e80:	e0bfff03 	ldbu	r2,-4(fp)
 2000e84:	108003cc 	andi	r2,r2,15
 2000e88:	100b883a 	mov	r5,r2
 2000e8c:	0009883a 	mov	r4,zero
 2000e90:	20002f40 	call	20002f4 <IO_write>

		IO_write(HPI_DATA,0x0291);//4 //endpoint 1
 2000e94:	0140a444 	movi	r5,657
 2000e98:	0009883a 	mov	r4,zero
 2000e9c:	20002f40 	call	20002f4 <IO_write>
		if(toggle%2)
 2000ea0:	e0bffb83 	ldbu	r2,-18(fp)
 2000ea4:	1080004c 	andi	r2,r2,1
 2000ea8:	10803fcc 	andi	r2,r2,255
 2000eac:	10000426 	beq	r2,zero,2000ec0 <main+0xaf4>
		{
			IO_write(HPI_DATA,0x0001);//6 //data 1
 2000eb0:	01400044 	movi	r5,1
 2000eb4:	0009883a 	mov	r4,zero
 2000eb8:	20002f40 	call	20002f4 <IO_write>
 2000ebc:	00000306 	br	2000ecc <main+0xb00>
		}
		else
		{
			IO_write(HPI_DATA,0x0041);//6 //data 1
 2000ec0:	01401044 	movi	r5,65
 2000ec4:	0009883a 	mov	r4,zero
 2000ec8:	20002f40 	call	20002f4 <IO_write>
		}
		IO_write(HPI_DATA,0x0013);//8
 2000ecc:	014004c4 	movi	r5,19
 2000ed0:	0009883a 	mov	r4,zero
 2000ed4:	20002f40 	call	20002f4 <IO_write>
		IO_write(HPI_DATA,0x0000);//a
 2000ed8:	000b883a 	mov	r5,zero
 2000edc:	0009883a 	mov	r4,zero
 2000ee0:	20002f40 	call	20002f4 <IO_write>
		UsbWrite(HUSB_SIE1_pCurrentTDPtr,0x0500); //HUSB_SIE1_pCurrentTDPtr
 2000ee4:	01414004 	movi	r5,1280
 2000ee8:	01006c04 	movi	r4,432
 2000eec:	20011480 	call	2001148 <UsbWrite>
		
		while (!(IO_read(HPI_STATUS) & HPI_STATUS_SIE1msg_FLAG) )  //read sie1 msg register
 2000ef0:	00002406 	br	2000f84 <main+0xbb8>
		{
			IO_write(HPI_ADDR,0x0500); //the start address
 2000ef4:	01414004 	movi	r5,1280
 2000ef8:	01000084 	movi	r4,2
 2000efc:	20002f40 	call	20002f4 <IO_write>
			//data phase IN-1
			IO_write(HPI_DATA,0x051c); //500
 2000f00:	01414704 	movi	r5,1308
 2000f04:	0009883a 	mov	r4,zero
 2000f08:	20002f40 	call	20002f4 <IO_write>

			IO_write(HPI_DATA,0x000f & data_size);//2 data length
 2000f0c:	e0bfff03 	ldbu	r2,-4(fp)
 2000f10:	108003cc 	andi	r2,r2,15
 2000f14:	100b883a 	mov	r5,r2
 2000f18:	0009883a 	mov	r4,zero
 2000f1c:	20002f40 	call	20002f4 <IO_write>

			IO_write(HPI_DATA,0x0291);//4 //endpoint 1
 2000f20:	0140a444 	movi	r5,657
 2000f24:	0009883a 	mov	r4,zero
 2000f28:	20002f40 	call	20002f4 <IO_write>
			if(toggle%2)
 2000f2c:	e0bffb83 	ldbu	r2,-18(fp)
 2000f30:	1080004c 	andi	r2,r2,1
 2000f34:	10803fcc 	andi	r2,r2,255
 2000f38:	10000426 	beq	r2,zero,2000f4c <main+0xb80>
			{
				IO_write(HPI_DATA,0x0001);//6 //data 1
 2000f3c:	01400044 	movi	r5,1
 2000f40:	0009883a 	mov	r4,zero
 2000f44:	20002f40 	call	20002f4 <IO_write>
 2000f48:	00000306 	br	2000f58 <main+0xb8c>
			}
			else
			{
				IO_write(HPI_DATA,0x0041);//6 //data 1
 2000f4c:	01401044 	movi	r5,65
 2000f50:	0009883a 	mov	r4,zero
 2000f54:	20002f40 	call	20002f4 <IO_write>
			}
			IO_write(HPI_DATA,0x0013);//8
 2000f58:	014004c4 	movi	r5,19
 2000f5c:	0009883a 	mov	r4,zero
 2000f60:	20002f40 	call	20002f4 <IO_write>
			IO_write(HPI_DATA,0x0000);//
 2000f64:	000b883a 	mov	r5,zero
 2000f68:	0009883a 	mov	r4,zero
 2000f6c:	20002f40 	call	20002f4 <IO_write>
			UsbWrite(HUSB_SIE1_pCurrentTDPtr,0x0500); //HUSB_SIE1_pCurrentTDPtr
 2000f70:	01414004 	movi	r5,1280
 2000f74:	01006c04 	movi	r4,432
 2000f78:	20011480 	call	2001148 <UsbWrite>
			usleep(10*1000);
 2000f7c:	0109c404 	movi	r4,10000
 2000f80:	200fa540 	call	200fa54 <usleep>
		}
		IO_write(HPI_DATA,0x0013);//8
		IO_write(HPI_DATA,0x0000);//a
		UsbWrite(HUSB_SIE1_pCurrentTDPtr,0x0500); //HUSB_SIE1_pCurrentTDPtr
		
		while (!(IO_read(HPI_STATUS) & HPI_STATUS_SIE1msg_FLAG) )  //read sie1 msg register
 2000f84:	010000c4 	movi	r4,3
 2000f88:	20003640 	call	2000364 <IO_read>
 2000f8c:	10bfffcc 	andi	r2,r2,65535
 2000f90:	1080040c 	andi	r2,r2,16
 2000f94:	103fd726 	beq	r2,zero,2000ef4 <__alt_data_end+0xff000ef4>
//		printf("\nfirst two keycode values are %04x\n",keycode);
//		// We only need the first keycode, which is at the lower byte of keycode.
//		// Send the keycode to hardware via PIO.
//		*keycode_base = keycode & 0xff;
		// ktteck 2 keycode
		usb_ctl_val = UsbWaitTDListDone();
 2000f98:	20021380 	call	2002138 <UsbWaitTDListDone>
 2000f9c:	e0bffb0d 	sth	r2,-20(fp)

		// packet starts from 0x051c, reading third byte

		IO_write(HPI_ADDR,0x051e); //the address of byte 0~1
 2000fa0:	01414784 	movi	r5,1310
 2000fa4:	01000084 	movi	r4,2
 2000fa8:	20002f40 	call	20002f4 <IO_write>

		keycode = (IO_read(HPI_DATA));
 2000fac:	0009883a 	mov	r4,zero
 2000fb0:	20003640 	call	2000364 <IO_read>
 2000fb4:	10bfffcc 	andi	r2,r2,65535
 2000fb8:	e0bffd15 	stw	r2,-12(fp)

		IO_write(HPI_ADDR,0x0520); //the address of byte 2~3
 2000fbc:	01414804 	movi	r5,1312
 2000fc0:	01000084 	movi	r4,2
 2000fc4:	20002f40 	call	20002f4 <IO_write>

		keycode += (IO_read(HPI_DATA) << 16);
 2000fc8:	0009883a 	mov	r4,zero
 2000fcc:	20003640 	call	2000364 <IO_read>
 2000fd0:	10bfffcc 	andi	r2,r2,65535
 2000fd4:	1004943a 	slli	r2,r2,16
 2000fd8:	e0fffd17 	ldw	r3,-12(fp)
 2000fdc:	1885883a 	add	r2,r3,r2
 2000fe0:	e0bffd15 	stw	r2,-12(fp)

		printf("\nfirst four keycode values are %08x\n",keycode);
 2000fe4:	e17ffd17 	ldw	r5,-12(fp)
 2000fe8:	01008074 	movhi	r4,513
 2000fec:	21082c04 	addi	r4,r4,8368
 2000ff0:	20022ec0 	call	20022ec <printf>

		IOWR(KEYCODE_BASE, 0, keycode & 0xffff); //write to the PIO
 2000ff4:	e0bffd17 	ldw	r2,-12(fp)
 2000ff8:	10ffffcc 	andi	r3,r2,65535
 2000ffc:	00801004 	movi	r2,64
 2001000:	10c00035 	stwio	r3,0(r2)
		//

		usleep(200);//usleep(5000);
 2001004:	01003204 	movi	r4,200
 2001008:	200fa540 	call	200fa54 <usleep>
		usb_ctl_val = UsbRead(ctl_reg);
 200100c:	d0a6cb0b 	ldhu	r2,-25812(gp)
 2001010:	10bfffcc 	andi	r2,r2,65535
 2001014:	1009883a 	mov	r4,r2
 2001018:	20011a00 	call	20011a0 <UsbRead>
 200101c:	e0bffb0d 	sth	r2,-20(fp)

		if(!(usb_ctl_val & no_device))
 2001020:	d0a6cb8b 	ldhu	r2,-25810(gp)
 2001024:	e0fffb0b 	ldhu	r3,-20(fp)
 2001028:	1884703a 	and	r2,r3,r2
 200102c:	10bfffcc 	andi	r2,r2,65535
 2001030:	10003f1e 	bne	r2,zero,2001130 <main+0xd64>
		{
			//USB hot plug routine
			for(hot_plug_count = 0 ; hot_plug_count < 7 ; hot_plug_count++)
 2001034:	e03ffbc5 	stb	zero,-17(fp)
 2001038:	00000f06 	br	2001078 <main+0xcac>
			{
				usleep(5*1000);
 200103c:	0104e204 	movi	r4,5000
 2001040:	200fa540 	call	200fa54 <usleep>
				usb_ctl_val = UsbRead(ctl_reg);
 2001044:	d0a6cb0b 	ldhu	r2,-25812(gp)
 2001048:	10bfffcc 	andi	r2,r2,65535
 200104c:	1009883a 	mov	r4,r2
 2001050:	20011a00 	call	20011a0 <UsbRead>
 2001054:	e0bffb0d 	sth	r2,-20(fp)
				if(usb_ctl_val & no_device) break;
 2001058:	d0a6cb8b 	ldhu	r2,-25810(gp)
 200105c:	e0fffb0b 	ldhu	r3,-20(fp)
 2001060:	1884703a 	and	r2,r3,r2
 2001064:	10bfffcc 	andi	r2,r2,65535
 2001068:	1000071e 	bne	r2,zero,2001088 <main+0xcbc>
		usb_ctl_val = UsbRead(ctl_reg);

		if(!(usb_ctl_val & no_device))
		{
			//USB hot plug routine
			for(hot_plug_count = 0 ; hot_plug_count < 7 ; hot_plug_count++)
 200106c:	e0bffbc3 	ldbu	r2,-17(fp)
 2001070:	10800044 	addi	r2,r2,1
 2001074:	e0bffbc5 	stb	r2,-17(fp)
 2001078:	e0bffbc3 	ldbu	r2,-17(fp)
 200107c:	108001f0 	cmpltui	r2,r2,7
 2001080:	103fee1e 	bne	r2,zero,200103c <__alt_data_end+0xff00103c>
 2001084:	00000106 	br	200108c <main+0xcc0>
			{
				usleep(5*1000);
				usb_ctl_val = UsbRead(ctl_reg);
				if(usb_ctl_val & no_device) break;
 2001088:	0001883a 	nop
			}
			if(!(usb_ctl_val & no_device))
 200108c:	d0a6cb8b 	ldhu	r2,-25810(gp)
 2001090:	e0fffb0b 	ldhu	r3,-20(fp)
 2001094:	1884703a 	and	r2,r3,r2
 2001098:	10bfffcc 	andi	r2,r2,65535
 200109c:	1000241e 	bne	r2,zero,2001130 <main+0xd64>
			{
				printf("\n[INFO]: the keyboard has been removed!!! \n");
 20010a0:	01008074 	movhi	r4,513
 20010a4:	21083604 	addi	r4,r4,8408
 20010a8:	20023e80 	call	20023e8 <puts>
				printf("[INFO]: please insert again!!! \n");
 20010ac:	01008074 	movhi	r4,513
 20010b0:	21084104 	addi	r4,r4,8452
 20010b4:	20023e80 	call	20023e8 <puts>
			}
		}

		while (!(usb_ctl_val & no_device))
 20010b8:	00001d06 	br	2001130 <main+0xd64>
		{

			usb_ctl_val = UsbRead(ctl_reg);
 20010bc:	d0a6cb0b 	ldhu	r2,-25812(gp)
 20010c0:	10bfffcc 	andi	r2,r2,65535
 20010c4:	1009883a 	mov	r4,r2
 20010c8:	20011a00 	call	20011a0 <UsbRead>
 20010cc:	e0bffb0d 	sth	r2,-20(fp)
			usleep(5*1000);
 20010d0:	0104e204 	movi	r4,5000
 20010d4:	200fa540 	call	200fa54 <usleep>
			usb_ctl_val = UsbRead(ctl_reg);
 20010d8:	d0a6cb0b 	ldhu	r2,-25812(gp)
 20010dc:	10bfffcc 	andi	r2,r2,65535
 20010e0:	1009883a 	mov	r4,r2
 20010e4:	20011a00 	call	20011a0 <UsbRead>
 20010e8:	e0bffb0d 	sth	r2,-20(fp)
			usleep(5*1000);
 20010ec:	0104e204 	movi	r4,5000
 20010f0:	200fa540 	call	200fa54 <usleep>
			usb_ctl_val = UsbRead(ctl_reg);
 20010f4:	d0a6cb0b 	ldhu	r2,-25812(gp)
 20010f8:	10bfffcc 	andi	r2,r2,65535
 20010fc:	1009883a 	mov	r4,r2
 2001100:	20011a00 	call	20011a0 <UsbRead>
 2001104:	e0bffb0d 	sth	r2,-20(fp)
			usleep(5*1000);
 2001108:	0104e204 	movi	r4,5000
 200110c:	200fa540 	call	200fa54 <usleep>

			if(usb_ctl_val & no_device)
 2001110:	d0a6cb8b 	ldhu	r2,-25810(gp)
 2001114:	e0fffb0b 	ldhu	r3,-20(fp)
 2001118:	1884703a 	and	r2,r3,r2
 200111c:	10bfffcc 	andi	r2,r2,65535
 2001120:	10000126 	beq	r2,zero,2001128 <main+0xd5c>
				goto USB_HOT_PLUG;
 2001124:	003cb406 	br	20003f8 <__alt_data_end+0xff0003f8>

			usleep(200);
 2001128:	01003204 	movi	r4,200
 200112c:	200fa540 	call	200fa54 <usleep>
				printf("\n[INFO]: the keyboard has been removed!!! \n");
				printf("[INFO]: please insert again!!! \n");
			}
		}

		while (!(usb_ctl_val & no_device))
 2001130:	d0a6cb8b 	ldhu	r2,-25810(gp)
 2001134:	e0fffb0b 	ldhu	r3,-20(fp)
 2001138:	1884703a 	and	r2,r3,r2
 200113c:	10bfffcc 	andi	r2,r2,65535
 2001140:	103fde26 	beq	r2,zero,20010bc <__alt_data_end+0xff0010bc>
				goto USB_HOT_PLUG;

			usleep(200);
		}

	}//end while
 2001144:	003f4506 	br	2000e5c <__alt_data_end+0xff000e5c>

02001148 <UsbWrite>:
 *
 * @note     None
 *
 ******************************************************************************/
void UsbWrite(alt_u16 Address, alt_u16 Data)
{
 2001148:	defffc04 	addi	sp,sp,-16
 200114c:	dfc00315 	stw	ra,12(sp)
 2001150:	df000215 	stw	fp,8(sp)
 2001154:	df000204 	addi	fp,sp,8
 2001158:	2007883a 	mov	r3,r4
 200115c:	2805883a 	mov	r2,r5
 2001160:	e0fffe0d 	sth	r3,-8(fp)
 2001164:	e0bfff0d 	sth	r2,-4(fp)
//*************************************************************************//
//									TASK								   //
//*************************************************************************//
//							Write this function							   //
//*************************************************************************//
IO_write(HPI_ADDR, Address); // base+offset or HPI_ADDR directly
 2001168:	e0bffe0b 	ldhu	r2,-8(fp)
 200116c:	100b883a 	mov	r5,r2
 2001170:	01000084 	movi	r4,2
 2001174:	20002f40 	call	20002f4 <IO_write>
IO_write(HPI_DATA, Data);
 2001178:	e0bfff0b 	ldhu	r2,-4(fp)
 200117c:	100b883a 	mov	r5,r2
 2001180:	0009883a 	mov	r4,zero
 2001184:	20002f40 	call	20002f4 <IO_write>

}
 2001188:	0001883a 	nop
 200118c:	e037883a 	mov	sp,fp
 2001190:	dfc00117 	ldw	ra,4(sp)
 2001194:	df000017 	ldw	fp,0(sp)
 2001198:	dec00204 	addi	sp,sp,8
 200119c:	f800283a 	ret

020011a0 <UsbRead>:
 *
 * @note     None
 *
 ******************************************************************************/
alt_u16 UsbRead(alt_u16 Address)
{
 20011a0:	defffd04 	addi	sp,sp,-12
 20011a4:	dfc00215 	stw	ra,8(sp)
 20011a8:	df000115 	stw	fp,4(sp)
 20011ac:	df000104 	addi	fp,sp,4
 20011b0:	2005883a 	mov	r2,r4
 20011b4:	e0bfff0d 	sth	r2,-4(fp)
//*************************************************************************//
//									TASK								   //
//*************************************************************************//
//							Write this function							   //
//*************************************************************************//
IO_write(HPI_ADDR, Address); // base+offset or HPI_ADDR directly
 20011b8:	e0bfff0b 	ldhu	r2,-4(fp)
 20011bc:	100b883a 	mov	r5,r2
 20011c0:	01000084 	movi	r4,2
 20011c4:	20002f40 	call	20002f4 <IO_write>
return IO_read(HPI_DATA);
 20011c8:	0009883a 	mov	r4,zero
 20011cc:	20003640 	call	2000364 <IO_read>
}
 20011d0:	e037883a 	mov	sp,fp
 20011d4:	dfc00117 	ldw	ra,4(sp)
 20011d8:	df000017 	ldw	fp,0(sp)
 20011dc:	dec00204 	addi	sp,sp,8
 20011e0:	f800283a 	ret

020011e4 <UsbSoftReset>:
 *
 * @note     None
 *
 ******************************************************************************/
void UsbSoftReset()
{
 20011e4:	defffe04 	addi	sp,sp,-8
 20011e8:	dfc00115 	stw	ra,4(sp)
 20011ec:	df000015 	stw	fp,0(sp)
 20011f0:	d839883a 	mov	fp,sp
	//XIo_Out16(USB_MAILBOX, COMM_RESET);
	IO_write(HPI_MAILBOX,COMM_RESET); //COMM_JUMP2CODE
 20011f4:	017e9414 	movui	r5,64080
 20011f8:	01000044 	movi	r4,1
 20011fc:	20002f40 	call	20002f4 <IO_write>
	usleep(100000);
 2001200:	010000b4 	movhi	r4,2
 2001204:	2121a804 	addi	r4,r4,-31072
 2001208:	200fa540 	call	200fa54 <usleep>
	printf("[USB INIT]:reset finished!\n");
 200120c:	01008074 	movhi	r4,513
 2001210:	21084904 	addi	r4,r4,8484
 2001214:	20023e80 	call	20023e8 <puts>

	usleep(500000);
 2001218:	01000234 	movhi	r4,8
 200121c:	21284804 	addi	r4,r4,-24288
 2001220:	200fa540 	call	200fa54 <usleep>
	printf("[USB INIT]:Clear up the interrupt\r\n");
 2001224:	01008074 	movhi	r4,513
 2001228:	21085004 	addi	r4,r4,8512
 200122c:	20023e80 	call	20023e8 <puts>
	IO_read(HPI_MAILBOX);
 2001230:	01000044 	movi	r4,1
 2001234:	20003640 	call	2000364 <IO_read>
	IO_read(HPI_STATUS);
 2001238:	010000c4 	movi	r4,3
 200123c:	20003640 	call	2000364 <IO_read>

	// Had to add the write due to a bug in BIOS where they overwrite
	// the mailbox after initialization with garbage.  The read clears
	// any pending interrupts.
	UsbRead (HPI_SIE1_MSG_ADR);
 2001240:	01005104 	movi	r4,324
 2001244:	20011a00 	call	20011a0 <UsbRead>
	UsbWrite (HPI_SIE1_MSG_ADR, 0);
 2001248:	000b883a 	mov	r5,zero
 200124c:	01005104 	movi	r4,324
 2001250:	20011480 	call	2001148 <UsbWrite>
	UsbRead (HPI_SIE2_MSG_ADR);
 2001254:	01005204 	movi	r4,328
 2001258:	20011a00 	call	20011a0 <UsbRead>
	UsbWrite (HPI_SIE2_MSG_ADR, 0);
 200125c:	000b883a 	mov	r5,zero
 2001260:	01005204 	movi	r4,328
 2001264:	20011480 	call	2001148 <UsbWrite>


	UsbWrite (HOST1_STAT_REG, 0xFFFF);
 2001268:	017fffd4 	movui	r5,65535
 200126c:	01302414 	movui	r4,49296
 2001270:	20011480 	call	2001148 <UsbWrite>
	UsbWrite (HOST2_STAT_REG, 0xFFFF);
 2001274:	017fffd4 	movui	r5,65535
 2001278:	01302c14 	movui	r4,49328
 200127c:	20011480 	call	2001148 <UsbWrite>
}
 2001280:	0001883a 	nop
 2001284:	e037883a 	mov	sp,fp
 2001288:	dfc00117 	ldw	ra,4(sp)
 200128c:	df000017 	ldw	fp,0(sp)
 2001290:	dec00204 	addi	sp,sp,8
 2001294:	f800283a 	ret

02001298 <UsbSetAddress>:


void UsbSetAddress()
{
 2001298:	defffe04 	addi	sp,sp,-8
 200129c:	dfc00115 	stw	ra,4(sp)
 20012a0:	df000015 	stw	fp,0(sp)
 20012a4:	d839883a 	mov	fp,sp
	//the starting address
	IO_write(HPI_ADDR,0x0500); //the start address
 20012a8:	01414004 	movi	r5,1280
 20012ac:	01000084 	movi	r4,2
 20012b0:	20002f40 	call	20002f4 <IO_write>
	// TD #1: 6 writes
	IO_write(HPI_DATA,0x050C);
 20012b4:	01414304 	movi	r5,1292
 20012b8:	0009883a 	mov	r4,zero
 20012bc:	20002f40 	call	20002f4 <IO_write>
	IO_write(HPI_DATA,0x0008); //4 port number
 20012c0:	01400204 	movi	r5,8
 20012c4:	0009883a 	mov	r4,zero
 20012c8:	20002f40 	call	20002f4 <IO_write>
	// TASK: Complete with 4 more IOWR functions
	IO_write(HPI_DATA,0x00D0);
 20012cc:	01403404 	movi	r5,208
 20012d0:	0009883a 	mov	r4,zero
 20012d4:	20002f40 	call	20002f4 <IO_write>
	IO_write(HPI_DATA,0x0001);
 20012d8:	01400044 	movi	r5,1
 20012dc:	0009883a 	mov	r4,zero
 20012e0:	20002f40 	call	20002f4 <IO_write>
	IO_write(HPI_DATA,0x0013);
 20012e4:	014004c4 	movi	r5,19
 20012e8:	0009883a 	mov	r4,zero
 20012ec:	20002f40 	call	20002f4 <IO_write>
	IO_write(HPI_DATA,0x0514);
 20012f0:	01414504 	movi	r5,1300
 20012f4:	0009883a 	mov	r4,zero
 20012f8:	20002f40 	call	20002f4 <IO_write>
	// TD #2: 4 writes
	// TASK: Complete with 4 IOWR functions
	IO_write(HPI_DATA,0x0500);
 20012fc:	01414004 	movi	r5,1280
 2001300:	0009883a 	mov	r4,zero
 2001304:	20002f40 	call	20002f4 <IO_write>
	IO_write(HPI_DATA,0x0002);
 2001308:	01400084 	movi	r5,2
 200130c:	0009883a 	mov	r4,zero
 2001310:	20002f40 	call	20002f4 <IO_write>
	IO_write(HPI_DATA,0x0000);
 2001314:	000b883a 	mov	r5,zero
 2001318:	0009883a 	mov	r4,zero
 200131c:	20002f40 	call	20002f4 <IO_write>
	IO_write(HPI_DATA,0x0000);
 2001320:	000b883a 	mov	r5,zero
 2001324:	0009883a 	mov	r4,zero
 2001328:	20002f40 	call	20002f4 <IO_write>
	// TD #3: 6 writes
	// TASK: Complete with 6 IOWR functions
	IO_write(HPI_DATA,0x0000); //
 200132c:	000b883a 	mov	r5,zero
 2001330:	0009883a 	mov	r4,zero
 2001334:	20002f40 	call	20002f4 <IO_write>
	IO_write(HPI_DATA,0x0000);//
 2001338:	000b883a 	mov	r5,zero
 200133c:	0009883a 	mov	r4,zero
 2001340:	20002f40 	call	20002f4 <IO_write>
	IO_write(HPI_DATA,0x0090);//
 2001344:	01402404 	movi	r5,144
 2001348:	0009883a 	mov	r4,zero
 200134c:	20002f40 	call	20002f4 <IO_write>
	IO_write(HPI_DATA,0x0041);
 2001350:	01401044 	movi	r5,65
 2001354:	0009883a 	mov	r4,zero
 2001358:	20002f40 	call	20002f4 <IO_write>
	IO_write(HPI_DATA,0x0013);
 200135c:	014004c4 	movi	r5,19
 2001360:	0009883a 	mov	r4,zero
 2001364:	20002f40 	call	20002f4 <IO_write>
	IO_write(HPI_DATA,0x0000);
 2001368:	000b883a 	mov	r5,zero
 200136c:	0009883a 	mov	r4,zero
 2001370:	20002f40 	call	20002f4 <IO_write>

	UsbWrite(HUSB_SIE1_pCurrentTDPtr,0x0500); //HUSB_SIE1_pCurrentTDPtr
 2001374:	01414004 	movi	r5,1280
 2001378:	01006c04 	movi	r4,432
 200137c:	20011480 	call	2001148 <UsbWrite>
}
 2001380:	0001883a 	nop
 2001384:	e037883a 	mov	sp,fp
 2001388:	dfc00117 	ldw	ra,4(sp)
 200138c:	df000017 	ldw	fp,0(sp)
 2001390:	dec00204 	addi	sp,sp,8
 2001394:	f800283a 	ret

02001398 <UsbGetDeviceDesc1>:


void UsbGetDeviceDesc1()
{
 2001398:	defffe04 	addi	sp,sp,-8
 200139c:	dfc00115 	stw	ra,4(sp)
 20013a0:	df000015 	stw	fp,0(sp)
 20013a4:	d839883a 	mov	fp,sp
	//the starting address
	IO_write(HPI_ADDR,0x0500); //the start address
 20013a8:	01414004 	movi	r5,1280
 20013ac:	01000084 	movi	r4,2
 20013b0:	20002f40 	call	20002f4 <IO_write>
	IO_write(HPI_DATA,0x050C);
 20013b4:	01414304 	movi	r5,1292
 20013b8:	0009883a 	mov	r4,zero
 20013bc:	20002f40 	call	20002f4 <IO_write>
	IO_write(HPI_DATA,0x0008); //4 port number
 20013c0:	01400204 	movi	r5,8
 20013c4:	0009883a 	mov	r4,zero
 20013c8:	20002f40 	call	20002f4 <IO_write>
	IO_write(HPI_DATA,0x02D0); //device address
 20013cc:	0140b404 	movi	r5,720
 20013d0:	0009883a 	mov	r4,zero
 20013d4:	20002f40 	call	20002f4 <IO_write>
	IO_write(HPI_DATA,0x0001);
 20013d8:	01400044 	movi	r5,1
 20013dc:	0009883a 	mov	r4,zero
 20013e0:	20002f40 	call	20002f4 <IO_write>
	IO_write(HPI_DATA,0x0013);
 20013e4:	014004c4 	movi	r5,19
 20013e8:	0009883a 	mov	r4,zero
 20013ec:	20002f40 	call	20002f4 <IO_write>
	IO_write(HPI_DATA,0x0514);
 20013f0:	01414504 	movi	r5,1300
 20013f4:	0009883a 	mov	r4,zero
 20013f8:	20002f40 	call	20002f4 <IO_write>

	//td content 4 bytes
	IO_write(HPI_DATA,0x0680);//c
 20013fc:	0141a004 	movi	r5,1664
 2001400:	0009883a 	mov	r4,zero
 2001404:	20002f40 	call	20002f4 <IO_write>
	IO_write(HPI_DATA,0x0100); //device 0x01
 2001408:	01404004 	movi	r5,256
 200140c:	0009883a 	mov	r4,zero
 2001410:	20002f40 	call	20002f4 <IO_write>
	IO_write(HPI_DATA,0x0000);
 2001414:	000b883a 	mov	r5,zero
 2001418:	0009883a 	mov	r4,zero
 200141c:	20002f40 	call	20002f4 <IO_write>
	IO_write(HPI_DATA,0x0008);
 2001420:	01400204 	movi	r5,8
 2001424:	0009883a 	mov	r4,zero
 2001428:	20002f40 	call	20002f4 <IO_write>

	//data phase IN
	IO_write(HPI_DATA,0x052C); //
 200142c:	01414b04 	movi	r5,1324
 2001430:	0009883a 	mov	r4,zero
 2001434:	20002f40 	call	20002f4 <IO_write>
	IO_write(HPI_DATA,0x0008);//
 2001438:	01400204 	movi	r5,8
 200143c:	0009883a 	mov	r4,zero
 2001440:	20002f40 	call	20002f4 <IO_write>
	IO_write(HPI_DATA,0x0290);//
 2001444:	0140a404 	movi	r5,656
 2001448:	0009883a 	mov	r4,zero
 200144c:	20002f40 	call	20002f4 <IO_write>
	IO_write(HPI_DATA,0x0041);
 2001450:	01401044 	movi	r5,65
 2001454:	0009883a 	mov	r4,zero
 2001458:	20002f40 	call	20002f4 <IO_write>
	IO_write(HPI_DATA,0x0013);
 200145c:	014004c4 	movi	r5,19
 2001460:	0009883a 	mov	r4,zero
 2001464:	20002f40 	call	20002f4 <IO_write>
	IO_write(HPI_DATA,0x0520);
 2001468:	01414804 	movi	r5,1312
 200146c:	0009883a 	mov	r4,zero
 2001470:	20002f40 	call	20002f4 <IO_write>

	//    //status phase
	IO_write(HPI_DATA,0x0000); //don't care
 2001474:	000b883a 	mov	r5,zero
 2001478:	0009883a 	mov	r4,zero
 200147c:	20002f40 	call	20002f4 <IO_write>
	IO_write(HPI_DATA,0x0000);//port number
 2001480:	000b883a 	mov	r5,zero
 2001484:	0009883a 	mov	r4,zero
 2001488:	20002f40 	call	20002f4 <IO_write>
	IO_write(HPI_DATA,0x0210);//device address
 200148c:	01408404 	movi	r5,528
 2001490:	0009883a 	mov	r4,zero
 2001494:	20002f40 	call	20002f4 <IO_write>
	IO_write(HPI_DATA,0x0041);
 2001498:	01401044 	movi	r5,65
 200149c:	0009883a 	mov	r4,zero
 20014a0:	20002f40 	call	20002f4 <IO_write>
	IO_write(HPI_DATA,0x0013);
 20014a4:	014004c4 	movi	r5,19
 20014a8:	0009883a 	mov	r4,zero
 20014ac:	20002f40 	call	20002f4 <IO_write>
	IO_write(HPI_DATA,0x0000);
 20014b0:	000b883a 	mov	r5,zero
 20014b4:	0009883a 	mov	r4,zero
 20014b8:	20002f40 	call	20002f4 <IO_write>

	UsbWrite(HUSB_SIE1_pCurrentTDPtr,0x0500); //HUSB_SIE1_pCurrentTDPtr
 20014bc:	01414004 	movi	r5,1280
 20014c0:	01006c04 	movi	r4,432
 20014c4:	20011480 	call	2001148 <UsbWrite>
}
 20014c8:	0001883a 	nop
 20014cc:	e037883a 	mov	sp,fp
 20014d0:	dfc00117 	ldw	ra,4(sp)
 20014d4:	df000017 	ldw	fp,0(sp)
 20014d8:	dec00204 	addi	sp,sp,8
 20014dc:	f800283a 	ret

020014e0 <UsbGetDeviceDesc2>:

void UsbGetDeviceDesc2()
{
 20014e0:	defffe04 	addi	sp,sp,-8
 20014e4:	dfc00115 	stw	ra,4(sp)
 20014e8:	df000015 	stw	fp,0(sp)
 20014ec:	d839883a 	mov	fp,sp
	//the starting address
	IO_write(HPI_ADDR,0x0500); //the start address
 20014f0:	01414004 	movi	r5,1280
 20014f4:	01000084 	movi	r4,2
 20014f8:	20002f40 	call	20002f4 <IO_write>
	IO_write(HPI_DATA,0x050C);
 20014fc:	01414304 	movi	r5,1292
 2001500:	0009883a 	mov	r4,zero
 2001504:	20002f40 	call	20002f4 <IO_write>
	IO_write(HPI_DATA,0x0008); //4 port number
 2001508:	01400204 	movi	r5,8
 200150c:	0009883a 	mov	r4,zero
 2001510:	20002f40 	call	20002f4 <IO_write>
	IO_write(HPI_DATA,0x02D0); //device address
 2001514:	0140b404 	movi	r5,720
 2001518:	0009883a 	mov	r4,zero
 200151c:	20002f40 	call	20002f4 <IO_write>
	IO_write(HPI_DATA,0x0001);
 2001520:	01400044 	movi	r5,1
 2001524:	0009883a 	mov	r4,zero
 2001528:	20002f40 	call	20002f4 <IO_write>
	IO_write(HPI_DATA,0x0013);
 200152c:	014004c4 	movi	r5,19
 2001530:	0009883a 	mov	r4,zero
 2001534:	20002f40 	call	20002f4 <IO_write>
	IO_write(HPI_DATA,0x0514);
 2001538:	01414504 	movi	r5,1300
 200153c:	0009883a 	mov	r4,zero
 2001540:	20002f40 	call	20002f4 <IO_write>

	//td content 4 bytes
	IO_write(HPI_DATA,0x0680);//c
 2001544:	0141a004 	movi	r5,1664
 2001548:	0009883a 	mov	r4,zero
 200154c:	20002f40 	call	20002f4 <IO_write>
	IO_write(HPI_DATA,0x0100);//e //device 0x01
 2001550:	01404004 	movi	r5,256
 2001554:	0009883a 	mov	r4,zero
 2001558:	20002f40 	call	20002f4 <IO_write>
	IO_write(HPI_DATA,0x0000);//0
 200155c:	000b883a 	mov	r5,zero
 2001560:	0009883a 	mov	r4,zero
 2001564:	20002f40 	call	20002f4 <IO_write>
	IO_write(HPI_DATA,0x0012);//2
 2001568:	01400484 	movi	r5,18
 200156c:	0009883a 	mov	r4,zero
 2001570:	20002f40 	call	20002f4 <IO_write>

	//data phase IN-1
	IO_write(HPI_DATA,0x0544); //514
 2001574:	01415104 	movi	r5,1348
 2001578:	0009883a 	mov	r4,zero
 200157c:	20002f40 	call	20002f4 <IO_write>
	IO_write(HPI_DATA,0x0008);//6
 2001580:	01400204 	movi	r5,8
 2001584:	0009883a 	mov	r4,zero
 2001588:	20002f40 	call	20002f4 <IO_write>
	IO_write(HPI_DATA,0x0290);//8
 200158c:	0140a404 	movi	r5,656
 2001590:	0009883a 	mov	r4,zero
 2001594:	20002f40 	call	20002f4 <IO_write>
	IO_write(HPI_DATA,0x0041);//a
 2001598:	01401044 	movi	r5,65
 200159c:	0009883a 	mov	r4,zero
 20015a0:	20002f40 	call	20002f4 <IO_write>
	IO_write(HPI_DATA,0x0013);//c
 20015a4:	014004c4 	movi	r5,19
 20015a8:	0009883a 	mov	r4,zero
 20015ac:	20002f40 	call	20002f4 <IO_write>
	IO_write(HPI_DATA,0x0520);//e
 20015b0:	01414804 	movi	r5,1312
 20015b4:	0009883a 	mov	r4,zero
 20015b8:	20002f40 	call	20002f4 <IO_write>

	//data phase IN-2
	IO_write(HPI_DATA,0x054c); //520
 20015bc:	01415304 	movi	r5,1356
 20015c0:	0009883a 	mov	r4,zero
 20015c4:	20002f40 	call	20002f4 <IO_write>
	IO_write(HPI_DATA,0x0008);//2
 20015c8:	01400204 	movi	r5,8
 20015cc:	0009883a 	mov	r4,zero
 20015d0:	20002f40 	call	20002f4 <IO_write>
	IO_write(HPI_DATA,0x0290);//4
 20015d4:	0140a404 	movi	r5,656
 20015d8:	0009883a 	mov	r4,zero
 20015dc:	20002f40 	call	20002f4 <IO_write>
	IO_write(HPI_DATA,0x0001);//6
 20015e0:	01400044 	movi	r5,1
 20015e4:	0009883a 	mov	r4,zero
 20015e8:	20002f40 	call	20002f4 <IO_write>
	IO_write(HPI_DATA,0x0013);//8
 20015ec:	014004c4 	movi	r5,19
 20015f0:	0009883a 	mov	r4,zero
 20015f4:	20002f40 	call	20002f4 <IO_write>
	IO_write(HPI_DATA,0x052c);//a
 20015f8:	01414b04 	movi	r5,1324
 20015fc:	0009883a 	mov	r4,zero
 2001600:	20002f40 	call	20002f4 <IO_write>

	//data phase IN-3
	IO_write(HPI_DATA,0x0554); //c
 2001604:	01415504 	movi	r5,1364
 2001608:	0009883a 	mov	r4,zero
 200160c:	20002f40 	call	20002f4 <IO_write>
	IO_write(HPI_DATA,0x0002);//e
 2001610:	01400084 	movi	r5,2
 2001614:	0009883a 	mov	r4,zero
 2001618:	20002f40 	call	20002f4 <IO_write>
	IO_write(HPI_DATA,0x0290);//530
 200161c:	0140a404 	movi	r5,656
 2001620:	0009883a 	mov	r4,zero
 2001624:	20002f40 	call	20002f4 <IO_write>
	IO_write(HPI_DATA,0x0041);//2
 2001628:	01401044 	movi	r5,65
 200162c:	0009883a 	mov	r4,zero
 2001630:	20002f40 	call	20002f4 <IO_write>
	IO_write(HPI_DATA,0x0013);//4
 2001634:	014004c4 	movi	r5,19
 2001638:	0009883a 	mov	r4,zero
 200163c:	20002f40 	call	20002f4 <IO_write>
	IO_write(HPI_DATA,0x0538);//6
 2001640:	01414e04 	movi	r5,1336
 2001644:	0009883a 	mov	r4,zero
 2001648:	20002f40 	call	20002f4 <IO_write>

	//status phase
	IO_write(HPI_DATA,0x0000); //538
 200164c:	000b883a 	mov	r5,zero
 2001650:	0009883a 	mov	r4,zero
 2001654:	20002f40 	call	20002f4 <IO_write>
	IO_write(HPI_DATA,0x0000);//a
 2001658:	000b883a 	mov	r5,zero
 200165c:	0009883a 	mov	r4,zero
 2001660:	20002f40 	call	20002f4 <IO_write>
	IO_write(HPI_DATA,0x0210);//c
 2001664:	01408404 	movi	r5,528
 2001668:	0009883a 	mov	r4,zero
 200166c:	20002f40 	call	20002f4 <IO_write>
	IO_write(HPI_DATA,0x0041);//e
 2001670:	01401044 	movi	r5,65
 2001674:	0009883a 	mov	r4,zero
 2001678:	20002f40 	call	20002f4 <IO_write>
	IO_write(HPI_DATA,0x0013);//540
 200167c:	014004c4 	movi	r5,19
 2001680:	0009883a 	mov	r4,zero
 2001684:	20002f40 	call	20002f4 <IO_write>
	IO_write(HPI_DATA,0x0000);//2
 2001688:	000b883a 	mov	r5,zero
 200168c:	0009883a 	mov	r4,zero
 2001690:	20002f40 	call	20002f4 <IO_write>

	UsbWrite(HUSB_SIE1_pCurrentTDPtr,0x0500); //HUSB_SIE1_pCurrentTDPtr
 2001694:	01414004 	movi	r5,1280
 2001698:	01006c04 	movi	r4,432
 200169c:	20011480 	call	2001148 <UsbWrite>
}
 20016a0:	0001883a 	nop
 20016a4:	e037883a 	mov	sp,fp
 20016a8:	dfc00117 	ldw	ra,4(sp)
 20016ac:	df000017 	ldw	fp,0(sp)
 20016b0:	dec00204 	addi	sp,sp,8
 20016b4:	f800283a 	ret

020016b8 <UsbGetConfigDesc1>:


void UsbGetConfigDesc1()
{
 20016b8:	defffe04 	addi	sp,sp,-8
 20016bc:	dfc00115 	stw	ra,4(sp)
 20016c0:	df000015 	stw	fp,0(sp)
 20016c4:	d839883a 	mov	fp,sp
	//the starting address
	IO_write(HPI_ADDR,0x0500); //the start address
 20016c8:	01414004 	movi	r5,1280
 20016cc:	01000084 	movi	r4,2
 20016d0:	20002f40 	call	20002f4 <IO_write>
	IO_write(HPI_DATA,0x050C);
 20016d4:	01414304 	movi	r5,1292
 20016d8:	0009883a 	mov	r4,zero
 20016dc:	20002f40 	call	20002f4 <IO_write>
	IO_write(HPI_DATA,0x0008); //4 port number
 20016e0:	01400204 	movi	r5,8
 20016e4:	0009883a 	mov	r4,zero
 20016e8:	20002f40 	call	20002f4 <IO_write>
	IO_write(HPI_DATA,0x02D0); //device address
 20016ec:	0140b404 	movi	r5,720
 20016f0:	0009883a 	mov	r4,zero
 20016f4:	20002f40 	call	20002f4 <IO_write>
	IO_write(HPI_DATA,0x0001);
 20016f8:	01400044 	movi	r5,1
 20016fc:	0009883a 	mov	r4,zero
 2001700:	20002f40 	call	20002f4 <IO_write>
	IO_write(HPI_DATA,0x0013);
 2001704:	014004c4 	movi	r5,19
 2001708:	0009883a 	mov	r4,zero
 200170c:	20002f40 	call	20002f4 <IO_write>
	IO_write(HPI_DATA,0x0514);
 2001710:	01414504 	movi	r5,1300
 2001714:	0009883a 	mov	r4,zero
 2001718:	20002f40 	call	20002f4 <IO_write>

	//td content 4 bytes
	IO_write(HPI_DATA,0x0680);//c
 200171c:	0141a004 	movi	r5,1664
 2001720:	0009883a 	mov	r4,zero
 2001724:	20002f40 	call	20002f4 <IO_write>
	IO_write(HPI_DATA,0x0200);//e //config 0x02
 2001728:	01408004 	movi	r5,512
 200172c:	0009883a 	mov	r4,zero
 2001730:	20002f40 	call	20002f4 <IO_write>
	IO_write(HPI_DATA,0x0000);//0
 2001734:	000b883a 	mov	r5,zero
 2001738:	0009883a 	mov	r4,zero
 200173c:	20002f40 	call	20002f4 <IO_write>
	IO_write(HPI_DATA,0x0009);//2
 2001740:	01400244 	movi	r5,9
 2001744:	0009883a 	mov	r4,zero
 2001748:	20002f40 	call	20002f4 <IO_write>

	//data phase IN-1
	IO_write(HPI_DATA,0x0544); //514
 200174c:	01415104 	movi	r5,1348
 2001750:	0009883a 	mov	r4,zero
 2001754:	20002f40 	call	20002f4 <IO_write>
	IO_write(HPI_DATA,0x0008);//6
 2001758:	01400204 	movi	r5,8
 200175c:	0009883a 	mov	r4,zero
 2001760:	20002f40 	call	20002f4 <IO_write>
	IO_write(HPI_DATA,0x0290);//8
 2001764:	0140a404 	movi	r5,656
 2001768:	0009883a 	mov	r4,zero
 200176c:	20002f40 	call	20002f4 <IO_write>
	IO_write(HPI_DATA,0x0041);//a
 2001770:	01401044 	movi	r5,65
 2001774:	0009883a 	mov	r4,zero
 2001778:	20002f40 	call	20002f4 <IO_write>
	IO_write(HPI_DATA,0x0013);//c
 200177c:	014004c4 	movi	r5,19
 2001780:	0009883a 	mov	r4,zero
 2001784:	20002f40 	call	20002f4 <IO_write>
	IO_write(HPI_DATA,0x0520);//e
 2001788:	01414804 	movi	r5,1312
 200178c:	0009883a 	mov	r4,zero
 2001790:	20002f40 	call	20002f4 <IO_write>

	//data phase IN-2
	IO_write(HPI_DATA,0x054c); //520
 2001794:	01415304 	movi	r5,1356
 2001798:	0009883a 	mov	r4,zero
 200179c:	20002f40 	call	20002f4 <IO_write>
	IO_write(HPI_DATA,0x0001);//2
 20017a0:	01400044 	movi	r5,1
 20017a4:	0009883a 	mov	r4,zero
 20017a8:	20002f40 	call	20002f4 <IO_write>
	IO_write(HPI_DATA,0x0290);//4
 20017ac:	0140a404 	movi	r5,656
 20017b0:	0009883a 	mov	r4,zero
 20017b4:	20002f40 	call	20002f4 <IO_write>
	IO_write(HPI_DATA,0x0001);//6 //data0
 20017b8:	01400044 	movi	r5,1
 20017bc:	0009883a 	mov	r4,zero
 20017c0:	20002f40 	call	20002f4 <IO_write>
	IO_write(HPI_DATA,0x0013);//8
 20017c4:	014004c4 	movi	r5,19
 20017c8:	0009883a 	mov	r4,zero
 20017cc:	20002f40 	call	20002f4 <IO_write>
	IO_write(HPI_DATA,0x052c);//a
 20017d0:	01414b04 	movi	r5,1324
 20017d4:	0009883a 	mov	r4,zero
 20017d8:	20002f40 	call	20002f4 <IO_write>

	//status phase
	IO_write(HPI_DATA,0x0000); //52c
 20017dc:	000b883a 	mov	r5,zero
 20017e0:	0009883a 	mov	r4,zero
 20017e4:	20002f40 	call	20002f4 <IO_write>
	IO_write(HPI_DATA,0x0000);//e
 20017e8:	000b883a 	mov	r5,zero
 20017ec:	0009883a 	mov	r4,zero
 20017f0:	20002f40 	call	20002f4 <IO_write>
	IO_write(HPI_DATA,0x0210);//530
 20017f4:	01408404 	movi	r5,528
 20017f8:	0009883a 	mov	r4,zero
 20017fc:	20002f40 	call	20002f4 <IO_write>
	IO_write(HPI_DATA,0x0041);//2
 2001800:	01401044 	movi	r5,65
 2001804:	0009883a 	mov	r4,zero
 2001808:	20002f40 	call	20002f4 <IO_write>
	IO_write(HPI_DATA,0x0013);//4
 200180c:	014004c4 	movi	r5,19
 2001810:	0009883a 	mov	r4,zero
 2001814:	20002f40 	call	20002f4 <IO_write>
	IO_write(HPI_DATA,0x0000);//6
 2001818:	000b883a 	mov	r5,zero
 200181c:	0009883a 	mov	r4,zero
 2001820:	20002f40 	call	20002f4 <IO_write>

	UsbWrite(HUSB_SIE1_pCurrentTDPtr,0x0500); //HUSB_SIE1_pCurrentTDPtr
 2001824:	01414004 	movi	r5,1280
 2001828:	01006c04 	movi	r4,432
 200182c:	20011480 	call	2001148 <UsbWrite>
}
 2001830:	0001883a 	nop
 2001834:	e037883a 	mov	sp,fp
 2001838:	dfc00117 	ldw	ra,4(sp)
 200183c:	df000017 	ldw	fp,0(sp)
 2001840:	dec00204 	addi	sp,sp,8
 2001844:	f800283a 	ret

02001848 <UsbGetConfigDesc2>:


void UsbGetConfigDesc2()
{
 2001848:	defffe04 	addi	sp,sp,-8
 200184c:	dfc00115 	stw	ra,4(sp)
 2001850:	df000015 	stw	fp,0(sp)
 2001854:	d839883a 	mov	fp,sp
	//the starting address
	IO_write(HPI_ADDR,0x0500); //the start address
 2001858:	01414004 	movi	r5,1280
 200185c:	01000084 	movi	r4,2
 2001860:	20002f40 	call	20002f4 <IO_write>
	IO_write(HPI_DATA,0x050C);
 2001864:	01414304 	movi	r5,1292
 2001868:	0009883a 	mov	r4,zero
 200186c:	20002f40 	call	20002f4 <IO_write>
	IO_write(HPI_DATA,0x0008); //4 port number
 2001870:	01400204 	movi	r5,8
 2001874:	0009883a 	mov	r4,zero
 2001878:	20002f40 	call	20002f4 <IO_write>
	IO_write(HPI_DATA,0x02D0); //device address
 200187c:	0140b404 	movi	r5,720
 2001880:	0009883a 	mov	r4,zero
 2001884:	20002f40 	call	20002f4 <IO_write>
	IO_write(HPI_DATA,0x0001);
 2001888:	01400044 	movi	r5,1
 200188c:	0009883a 	mov	r4,zero
 2001890:	20002f40 	call	20002f4 <IO_write>
	IO_write(HPI_DATA,0x0013);
 2001894:	014004c4 	movi	r5,19
 2001898:	0009883a 	mov	r4,zero
 200189c:	20002f40 	call	20002f4 <IO_write>
	IO_write(HPI_DATA,0x0514);
 20018a0:	01414504 	movi	r5,1300
 20018a4:	0009883a 	mov	r4,zero
 20018a8:	20002f40 	call	20002f4 <IO_write>

	//td content 4 bytes
	IO_write(HPI_DATA,0x0680);//c
 20018ac:	0141a004 	movi	r5,1664
 20018b0:	0009883a 	mov	r4,zero
 20018b4:	20002f40 	call	20002f4 <IO_write>
	IO_write(HPI_DATA,0x0200);//e //config 0x02
 20018b8:	01408004 	movi	r5,512
 20018bc:	0009883a 	mov	r4,zero
 20018c0:	20002f40 	call	20002f4 <IO_write>
	IO_write(HPI_DATA,0x0000);//0
 20018c4:	000b883a 	mov	r5,zero
 20018c8:	0009883a 	mov	r4,zero
 20018cc:	20002f40 	call	20002f4 <IO_write>
	IO_write(HPI_DATA,0x00FF);//2
 20018d0:	01403fc4 	movi	r5,255
 20018d4:	0009883a 	mov	r4,zero
 20018d8:	20002f40 	call	20002f4 <IO_write>

	//data phase IN-1
	IO_write(HPI_DATA,0x055c); //514
 20018dc:	01415704 	movi	r5,1372
 20018e0:	0009883a 	mov	r4,zero
 20018e4:	20002f40 	call	20002f4 <IO_write>
	IO_write(HPI_DATA,0x0008);//6
 20018e8:	01400204 	movi	r5,8
 20018ec:	0009883a 	mov	r4,zero
 20018f0:	20002f40 	call	20002f4 <IO_write>
	IO_write(HPI_DATA,0x0290);//8
 20018f4:	0140a404 	movi	r5,656
 20018f8:	0009883a 	mov	r4,zero
 20018fc:	20002f40 	call	20002f4 <IO_write>
	IO_write(HPI_DATA,0x0041);//a
 2001900:	01401044 	movi	r5,65
 2001904:	0009883a 	mov	r4,zero
 2001908:	20002f40 	call	20002f4 <IO_write>
	IO_write(HPI_DATA,0x0013);//c
 200190c:	014004c4 	movi	r5,19
 2001910:	0009883a 	mov	r4,zero
 2001914:	20002f40 	call	20002f4 <IO_write>
	IO_write(HPI_DATA,0x0520);//e
 2001918:	01414804 	movi	r5,1312
 200191c:	0009883a 	mov	r4,zero
 2001920:	20002f40 	call	20002f4 <IO_write>

	//data phase IN-2
	IO_write(HPI_DATA,0x0564); //520
 2001924:	01415904 	movi	r5,1380
 2001928:	0009883a 	mov	r4,zero
 200192c:	20002f40 	call	20002f4 <IO_write>
	IO_write(HPI_DATA,0x0008);//2
 2001930:	01400204 	movi	r5,8
 2001934:	0009883a 	mov	r4,zero
 2001938:	20002f40 	call	20002f4 <IO_write>
	IO_write(HPI_DATA,0x0290);//4
 200193c:	0140a404 	movi	r5,656
 2001940:	0009883a 	mov	r4,zero
 2001944:	20002f40 	call	20002f4 <IO_write>
	IO_write(HPI_DATA,0x0001);//6 //data0
 2001948:	01400044 	movi	r5,1
 200194c:	0009883a 	mov	r4,zero
 2001950:	20002f40 	call	20002f4 <IO_write>
	IO_write(HPI_DATA,0x0013);//8
 2001954:	014004c4 	movi	r5,19
 2001958:	0009883a 	mov	r4,zero
 200195c:	20002f40 	call	20002f4 <IO_write>
	IO_write(HPI_DATA,0x052c);//a
 2001960:	01414b04 	movi	r5,1324
 2001964:	0009883a 	mov	r4,zero
 2001968:	20002f40 	call	20002f4 <IO_write>

	//data phase IN-3
	IO_write(HPI_DATA,0x056c); //52c
 200196c:	01415b04 	movi	r5,1388
 2001970:	0009883a 	mov	r4,zero
 2001974:	20002f40 	call	20002f4 <IO_write>
	IO_write(HPI_DATA,0x0008);//e
 2001978:	01400204 	movi	r5,8
 200197c:	0009883a 	mov	r4,zero
 2001980:	20002f40 	call	20002f4 <IO_write>
	IO_write(HPI_DATA,0x0290);//530
 2001984:	0140a404 	movi	r5,656
 2001988:	0009883a 	mov	r4,zero
 200198c:	20002f40 	call	20002f4 <IO_write>
	IO_write(HPI_DATA,0x0041);//2
 2001990:	01401044 	movi	r5,65
 2001994:	0009883a 	mov	r4,zero
 2001998:	20002f40 	call	20002f4 <IO_write>
	IO_write(HPI_DATA,0x0013);//4
 200199c:	014004c4 	movi	r5,19
 20019a0:	0009883a 	mov	r4,zero
 20019a4:	20002f40 	call	20002f4 <IO_write>
	IO_write(HPI_DATA,0x0538);//6
 20019a8:	01414e04 	movi	r5,1336
 20019ac:	0009883a 	mov	r4,zero
 20019b0:	20002f40 	call	20002f4 <IO_write>

	//data phase IN-4
	IO_write(HPI_DATA,0x0574); //538
 20019b4:	01415d04 	movi	r5,1396
 20019b8:	0009883a 	mov	r4,zero
 20019bc:	20002f40 	call	20002f4 <IO_write>
	IO_write(HPI_DATA,0x0008);//a
 20019c0:	01400204 	movi	r5,8
 20019c4:	0009883a 	mov	r4,zero
 20019c8:	20002f40 	call	20002f4 <IO_write>
	IO_write(HPI_DATA,0x0290);//c
 20019cc:	0140a404 	movi	r5,656
 20019d0:	0009883a 	mov	r4,zero
 20019d4:	20002f40 	call	20002f4 <IO_write>
	IO_write(HPI_DATA,0x0001);//e //data0
 20019d8:	01400044 	movi	r5,1
 20019dc:	0009883a 	mov	r4,zero
 20019e0:	20002f40 	call	20002f4 <IO_write>
	IO_write(HPI_DATA,0x0013);//540
 20019e4:	014004c4 	movi	r5,19
 20019e8:	0009883a 	mov	r4,zero
 20019ec:	20002f40 	call	20002f4 <IO_write>
	IO_write(HPI_DATA,0x0544);//2
 20019f0:	01415104 	movi	r5,1348
 20019f4:	0009883a 	mov	r4,zero
 20019f8:	20002f40 	call	20002f4 <IO_write>

	//data phase IN-5
	IO_write(HPI_DATA,0x057c); //544
 20019fc:	01415f04 	movi	r5,1404
 2001a00:	0009883a 	mov	r4,zero
 2001a04:	20002f40 	call	20002f4 <IO_write>
	IO_write(HPI_DATA,0x0002);//6
 2001a08:	01400084 	movi	r5,2
 2001a0c:	0009883a 	mov	r4,zero
 2001a10:	20002f40 	call	20002f4 <IO_write>
	IO_write(HPI_DATA,0x0290);//8
 2001a14:	0140a404 	movi	r5,656
 2001a18:	0009883a 	mov	r4,zero
 2001a1c:	20002f40 	call	20002f4 <IO_write>
	IO_write(HPI_DATA,0x0041);//a //data1
 2001a20:	01401044 	movi	r5,65
 2001a24:	0009883a 	mov	r4,zero
 2001a28:	20002f40 	call	20002f4 <IO_write>
	IO_write(HPI_DATA,0x0013);//c
 2001a2c:	014004c4 	movi	r5,19
 2001a30:	0009883a 	mov	r4,zero
 2001a34:	20002f40 	call	20002f4 <IO_write>
	IO_write(HPI_DATA,0x0550);//e
 2001a38:	01415404 	movi	r5,1360
 2001a3c:	0009883a 	mov	r4,zero
 2001a40:	20002f40 	call	20002f4 <IO_write>

	//status phase
	IO_write(HPI_DATA,0x0000); //550
 2001a44:	000b883a 	mov	r5,zero
 2001a48:	0009883a 	mov	r4,zero
 2001a4c:	20002f40 	call	20002f4 <IO_write>
	IO_write(HPI_DATA,0x0000);//2
 2001a50:	000b883a 	mov	r5,zero
 2001a54:	0009883a 	mov	r4,zero
 2001a58:	20002f40 	call	20002f4 <IO_write>
	IO_write(HPI_DATA,0x0210);//4
 2001a5c:	01408404 	movi	r5,528
 2001a60:	0009883a 	mov	r4,zero
 2001a64:	20002f40 	call	20002f4 <IO_write>
	IO_write(HPI_DATA,0x0041);//6
 2001a68:	01401044 	movi	r5,65
 2001a6c:	0009883a 	mov	r4,zero
 2001a70:	20002f40 	call	20002f4 <IO_write>
	IO_write(HPI_DATA,0x0013);//8
 2001a74:	014004c4 	movi	r5,19
 2001a78:	0009883a 	mov	r4,zero
 2001a7c:	20002f40 	call	20002f4 <IO_write>
	IO_write(HPI_DATA,0x0000);//a
 2001a80:	000b883a 	mov	r5,zero
 2001a84:	0009883a 	mov	r4,zero
 2001a88:	20002f40 	call	20002f4 <IO_write>

	UsbWrite(HUSB_SIE1_pCurrentTDPtr,0x0500); //HUSB_SIE1_pCurrentTDPtr
 2001a8c:	01414004 	movi	r5,1280
 2001a90:	01006c04 	movi	r4,432
 2001a94:	20011480 	call	2001148 <UsbWrite>
}
 2001a98:	0001883a 	nop
 2001a9c:	e037883a 	mov	sp,fp
 2001aa0:	dfc00117 	ldw	ra,4(sp)
 2001aa4:	df000017 	ldw	fp,0(sp)
 2001aa8:	dec00204 	addi	sp,sp,8
 2001aac:	f800283a 	ret

02001ab0 <UsbSetConfig>:

void UsbSetConfig()
{
 2001ab0:	defffe04 	addi	sp,sp,-8
 2001ab4:	dfc00115 	stw	ra,4(sp)
 2001ab8:	df000015 	stw	fp,0(sp)
 2001abc:	d839883a 	mov	fp,sp
	//the starting address
	IO_write(HPI_ADDR,0x0500); //the start address
 2001ac0:	01414004 	movi	r5,1280
 2001ac4:	01000084 	movi	r4,2
 2001ac8:	20002f40 	call	20002f4 <IO_write>
	IO_write(HPI_DATA,0x050C);
 2001acc:	01414304 	movi	r5,1292
 2001ad0:	0009883a 	mov	r4,zero
 2001ad4:	20002f40 	call	20002f4 <IO_write>
	IO_write(HPI_DATA,0x0008); //4 port number
 2001ad8:	01400204 	movi	r5,8
 2001adc:	0009883a 	mov	r4,zero
 2001ae0:	20002f40 	call	20002f4 <IO_write>
	IO_write(HPI_DATA,0x02D0); //port address
 2001ae4:	0140b404 	movi	r5,720
 2001ae8:	0009883a 	mov	r4,zero
 2001aec:	20002f40 	call	20002f4 <IO_write>
	IO_write(HPI_DATA,0x0001);
 2001af0:	01400044 	movi	r5,1
 2001af4:	0009883a 	mov	r4,zero
 2001af8:	20002f40 	call	20002f4 <IO_write>
	IO_write(HPI_DATA,0x0013);
 2001afc:	014004c4 	movi	r5,19
 2001b00:	0009883a 	mov	r4,zero
 2001b04:	20002f40 	call	20002f4 <IO_write>
	IO_write(HPI_DATA,0x0514);
 2001b08:	01414504 	movi	r5,1300
 2001b0c:	0009883a 	mov	r4,zero
 2001b10:	20002f40 	call	20002f4 <IO_write>

	//td content 4 bytes
	IO_write(HPI_DATA,0x0900);
 2001b14:	01424004 	movi	r5,2304
 2001b18:	0009883a 	mov	r4,zero
 2001b1c:	20002f40 	call	20002f4 <IO_write>
	IO_write(HPI_DATA,0x0001);//device address
 2001b20:	01400044 	movi	r5,1
 2001b24:	0009883a 	mov	r4,zero
 2001b28:	20002f40 	call	20002f4 <IO_write>
	IO_write(HPI_DATA,0x0000);
 2001b2c:	000b883a 	mov	r5,zero
 2001b30:	0009883a 	mov	r4,zero
 2001b34:	20002f40 	call	20002f4 <IO_write>
	IO_write(HPI_DATA,0x0000);
 2001b38:	000b883a 	mov	r5,zero
 2001b3c:	0009883a 	mov	r4,zero
 2001b40:	20002f40 	call	20002f4 <IO_write>
	//in packet
	IO_write(HPI_DATA,0x0000); //don't care
 2001b44:	000b883a 	mov	r5,zero
 2001b48:	0009883a 	mov	r4,zero
 2001b4c:	20002f40 	call	20002f4 <IO_write>
	IO_write(HPI_DATA,0x0000);//port number
 2001b50:	000b883a 	mov	r5,zero
 2001b54:	0009883a 	mov	r4,zero
 2001b58:	20002f40 	call	20002f4 <IO_write>
	IO_write(HPI_DATA,0x0290);//device address
 2001b5c:	0140a404 	movi	r5,656
 2001b60:	0009883a 	mov	r4,zero
 2001b64:	20002f40 	call	20002f4 <IO_write>
	IO_write(HPI_DATA,0x0041); //data 1
 2001b68:	01401044 	movi	r5,65
 2001b6c:	0009883a 	mov	r4,zero
 2001b70:	20002f40 	call	20002f4 <IO_write>
	IO_write(HPI_DATA,0x0013);
 2001b74:	014004c4 	movi	r5,19
 2001b78:	0009883a 	mov	r4,zero
 2001b7c:	20002f40 	call	20002f4 <IO_write>
	IO_write(HPI_DATA,0x0000);
 2001b80:	000b883a 	mov	r5,zero
 2001b84:	0009883a 	mov	r4,zero
 2001b88:	20002f40 	call	20002f4 <IO_write>

	UsbWrite(HUSB_SIE1_pCurrentTDPtr,0x0500); //HUSB_SIE1_pCurrentTDPtr
 2001b8c:	01414004 	movi	r5,1280
 2001b90:	01006c04 	movi	r4,432
 2001b94:	20011480 	call	2001148 <UsbWrite>

}
 2001b98:	0001883a 	nop
 2001b9c:	e037883a 	mov	sp,fp
 2001ba0:	dfc00117 	ldw	ra,4(sp)
 2001ba4:	df000017 	ldw	fp,0(sp)
 2001ba8:	dec00204 	addi	sp,sp,8
 2001bac:	f800283a 	ret

02001bb0 <UsbClassRequest>:

void UsbClassRequest()
{
 2001bb0:	defffe04 	addi	sp,sp,-8
 2001bb4:	dfc00115 	stw	ra,4(sp)
 2001bb8:	df000015 	stw	fp,0(sp)
 2001bbc:	d839883a 	mov	fp,sp
	//the starting address
	IO_write(HPI_ADDR,0x0500); //the start address
 2001bc0:	01414004 	movi	r5,1280
 2001bc4:	01000084 	movi	r4,2
 2001bc8:	20002f40 	call	20002f4 <IO_write>
	IO_write(HPI_DATA,0x050C);
 2001bcc:	01414304 	movi	r5,1292
 2001bd0:	0009883a 	mov	r4,zero
 2001bd4:	20002f40 	call	20002f4 <IO_write>
	IO_write(HPI_DATA,0x0008); //4 port number
 2001bd8:	01400204 	movi	r5,8
 2001bdc:	0009883a 	mov	r4,zero
 2001be0:	20002f40 	call	20002f4 <IO_write>
	IO_write(HPI_DATA,0x02D0); //port address
 2001be4:	0140b404 	movi	r5,720
 2001be8:	0009883a 	mov	r4,zero
 2001bec:	20002f40 	call	20002f4 <IO_write>
	IO_write(HPI_DATA,0x0001);
 2001bf0:	01400044 	movi	r5,1
 2001bf4:	0009883a 	mov	r4,zero
 2001bf8:	20002f40 	call	20002f4 <IO_write>
	IO_write(HPI_DATA,0x0013);
 2001bfc:	014004c4 	movi	r5,19
 2001c00:	0009883a 	mov	r4,zero
 2001c04:	20002f40 	call	20002f4 <IO_write>
	IO_write(HPI_DATA,0x0514);
 2001c08:	01414504 	movi	r5,1300
 2001c0c:	0009883a 	mov	r4,zero
 2001c10:	20002f40 	call	20002f4 <IO_write>

	//td content 4 bytes
	IO_write(HPI_DATA,0x0A21);
 2001c14:	01428844 	movi	r5,2593
 2001c18:	0009883a 	mov	r4,zero
 2001c1c:	20002f40 	call	20002f4 <IO_write>
	IO_write(HPI_DATA,0x0000);//device address
 2001c20:	000b883a 	mov	r5,zero
 2001c24:	0009883a 	mov	r4,zero
 2001c28:	20002f40 	call	20002f4 <IO_write>
	IO_write(HPI_DATA,0x0000);
 2001c2c:	000b883a 	mov	r5,zero
 2001c30:	0009883a 	mov	r4,zero
 2001c34:	20002f40 	call	20002f4 <IO_write>
	IO_write(HPI_DATA,0x0000);
 2001c38:	000b883a 	mov	r5,zero
 2001c3c:	0009883a 	mov	r4,zero
 2001c40:	20002f40 	call	20002f4 <IO_write>
	//in packet
	IO_write(HPI_DATA,0x0000); //don't care
 2001c44:	000b883a 	mov	r5,zero
 2001c48:	0009883a 	mov	r4,zero
 2001c4c:	20002f40 	call	20002f4 <IO_write>
	IO_write(HPI_DATA,0x0000);//port number /data length
 2001c50:	000b883a 	mov	r5,zero
 2001c54:	0009883a 	mov	r4,zero
 2001c58:	20002f40 	call	20002f4 <IO_write>
	IO_write(HPI_DATA,0x0290);//device address
 2001c5c:	0140a404 	movi	r5,656
 2001c60:	0009883a 	mov	r4,zero
 2001c64:	20002f40 	call	20002f4 <IO_write>
	IO_write(HPI_DATA,0x0041); //data 1
 2001c68:	01401044 	movi	r5,65
 2001c6c:	0009883a 	mov	r4,zero
 2001c70:	20002f40 	call	20002f4 <IO_write>
	IO_write(HPI_DATA,0x0013);
 2001c74:	014004c4 	movi	r5,19
 2001c78:	0009883a 	mov	r4,zero
 2001c7c:	20002f40 	call	20002f4 <IO_write>
	IO_write(HPI_DATA,0x0000);
 2001c80:	000b883a 	mov	r5,zero
 2001c84:	0009883a 	mov	r4,zero
 2001c88:	20002f40 	call	20002f4 <IO_write>

	UsbWrite(HUSB_SIE1_pCurrentTDPtr,0x0500); //HUSB_SIE1_pCurrentTDPtr
 2001c8c:	01414004 	movi	r5,1280
 2001c90:	01006c04 	movi	r4,432
 2001c94:	20011480 	call	2001148 <UsbWrite>
}
 2001c98:	0001883a 	nop
 2001c9c:	e037883a 	mov	sp,fp
 2001ca0:	dfc00117 	ldw	ra,4(sp)
 2001ca4:	df000017 	ldw	fp,0(sp)
 2001ca8:	dec00204 	addi	sp,sp,8
 2001cac:	f800283a 	ret

02001cb0 <UsbGetHidDesc>:


void UsbGetHidDesc()
{
 2001cb0:	defffe04 	addi	sp,sp,-8
 2001cb4:	dfc00115 	stw	ra,4(sp)
 2001cb8:	df000015 	stw	fp,0(sp)
 2001cbc:	d839883a 	mov	fp,sp
	//the starting address
	IO_write(HPI_ADDR,0x0500); //the start address
 2001cc0:	01414004 	movi	r5,1280
 2001cc4:	01000084 	movi	r4,2
 2001cc8:	20002f40 	call	20002f4 <IO_write>
	IO_write(HPI_DATA,0x050C);
 2001ccc:	01414304 	movi	r5,1292
 2001cd0:	0009883a 	mov	r4,zero
 2001cd4:	20002f40 	call	20002f4 <IO_write>
	IO_write(HPI_DATA,0x0008); //4 port number
 2001cd8:	01400204 	movi	r5,8
 2001cdc:	0009883a 	mov	r4,zero
 2001ce0:	20002f40 	call	20002f4 <IO_write>
	IO_write(HPI_DATA,0x02D0); //port address
 2001ce4:	0140b404 	movi	r5,720
 2001ce8:	0009883a 	mov	r4,zero
 2001cec:	20002f40 	call	20002f4 <IO_write>
	IO_write(HPI_DATA,0x0001);
 2001cf0:	01400044 	movi	r5,1
 2001cf4:	0009883a 	mov	r4,zero
 2001cf8:	20002f40 	call	20002f4 <IO_write>
	IO_write(HPI_DATA,0x0013);
 2001cfc:	014004c4 	movi	r5,19
 2001d00:	0009883a 	mov	r4,zero
 2001d04:	20002f40 	call	20002f4 <IO_write>
	IO_write(HPI_DATA,0x0514);
 2001d08:	01414504 	movi	r5,1300
 2001d0c:	0009883a 	mov	r4,zero
 2001d10:	20002f40 	call	20002f4 <IO_write>

	//td content 4 bytes
	IO_write(HPI_DATA,0x0681);//c
 2001d14:	0141a044 	movi	r5,1665
 2001d18:	0009883a 	mov	r4,zero
 2001d1c:	20002f40 	call	20002f4 <IO_write>
	IO_write(HPI_DATA,0x2100);//e //HID 0x21
 2001d20:	01484004 	movi	r5,8448
 2001d24:	0009883a 	mov	r4,zero
 2001d28:	20002f40 	call	20002f4 <IO_write>
	IO_write(HPI_DATA,0x0000);//0
 2001d2c:	000b883a 	mov	r5,zero
 2001d30:	0009883a 	mov	r4,zero
 2001d34:	20002f40 	call	20002f4 <IO_write>
	IO_write(HPI_DATA,0x007B);//2
 2001d38:	01401ec4 	movi	r5,123
 2001d3c:	0009883a 	mov	r4,zero
 2001d40:	20002f40 	call	20002f4 <IO_write>

	//data phase IN-1
	IO_write(HPI_DATA,0x0544); //514
 2001d44:	01415104 	movi	r5,1348
 2001d48:	0009883a 	mov	r4,zero
 2001d4c:	20002f40 	call	20002f4 <IO_write>
	IO_write(HPI_DATA,0x0008);//6
 2001d50:	01400204 	movi	r5,8
 2001d54:	0009883a 	mov	r4,zero
 2001d58:	20002f40 	call	20002f4 <IO_write>
	IO_write(HPI_DATA,0x0290);//8
 2001d5c:	0140a404 	movi	r5,656
 2001d60:	0009883a 	mov	r4,zero
 2001d64:	20002f40 	call	20002f4 <IO_write>
	IO_write(HPI_DATA,0x0041);//a
 2001d68:	01401044 	movi	r5,65
 2001d6c:	0009883a 	mov	r4,zero
 2001d70:	20002f40 	call	20002f4 <IO_write>
	IO_write(HPI_DATA,0x0013);//c
 2001d74:	014004c4 	movi	r5,19
 2001d78:	0009883a 	mov	r4,zero
 2001d7c:	20002f40 	call	20002f4 <IO_write>
	IO_write(HPI_DATA,0x0520);//e
 2001d80:	01414804 	movi	r5,1312
 2001d84:	0009883a 	mov	r4,zero
 2001d88:	20002f40 	call	20002f4 <IO_write>

	//status phase
	IO_write(HPI_DATA,0x0000); //52c
 2001d8c:	000b883a 	mov	r5,zero
 2001d90:	0009883a 	mov	r4,zero
 2001d94:	20002f40 	call	20002f4 <IO_write>
	IO_write(HPI_DATA,0x0000);//e
 2001d98:	000b883a 	mov	r5,zero
 2001d9c:	0009883a 	mov	r4,zero
 2001da0:	20002f40 	call	20002f4 <IO_write>
	IO_write(HPI_DATA,0x0210);//530
 2001da4:	01408404 	movi	r5,528
 2001da8:	0009883a 	mov	r4,zero
 2001dac:	20002f40 	call	20002f4 <IO_write>
	IO_write(HPI_DATA,0x0041);//2
 2001db0:	01401044 	movi	r5,65
 2001db4:	0009883a 	mov	r4,zero
 2001db8:	20002f40 	call	20002f4 <IO_write>
	IO_write(HPI_DATA,0x0013);//4
 2001dbc:	014004c4 	movi	r5,19
 2001dc0:	0009883a 	mov	r4,zero
 2001dc4:	20002f40 	call	20002f4 <IO_write>
	IO_write(HPI_DATA,0x0000);//6
 2001dc8:	000b883a 	mov	r5,zero
 2001dcc:	0009883a 	mov	r4,zero
 2001dd0:	20002f40 	call	20002f4 <IO_write>

	UsbWrite(HUSB_SIE1_pCurrentTDPtr,0x0500); //HUSB_SIE1_pCurrentTDPtr
 2001dd4:	01414004 	movi	r5,1280
 2001dd8:	01006c04 	movi	r4,432
 2001ddc:	20011480 	call	2001148 <UsbWrite>

}
 2001de0:	0001883a 	nop
 2001de4:	e037883a 	mov	sp,fp
 2001de8:	dfc00117 	ldw	ra,4(sp)
 2001dec:	df000017 	ldw	fp,0(sp)
 2001df0:	dec00204 	addi	sp,sp,8
 2001df4:	f800283a 	ret

02001df8 <UsbGetReportDesc>:


void UsbGetReportDesc()
{
 2001df8:	defffe04 	addi	sp,sp,-8
 2001dfc:	dfc00115 	stw	ra,4(sp)
 2001e00:	df000015 	stw	fp,0(sp)
 2001e04:	d839883a 	mov	fp,sp
	//the starting address
	IO_write(HPI_ADDR,0x0500); //the start address
 2001e08:	01414004 	movi	r5,1280
 2001e0c:	01000084 	movi	r4,2
 2001e10:	20002f40 	call	20002f4 <IO_write>
	IO_write(HPI_DATA,0x050C);
 2001e14:	01414304 	movi	r5,1292
 2001e18:	0009883a 	mov	r4,zero
 2001e1c:	20002f40 	call	20002f4 <IO_write>
	IO_write(HPI_DATA,0x0008); //4 port number
 2001e20:	01400204 	movi	r5,8
 2001e24:	0009883a 	mov	r4,zero
 2001e28:	20002f40 	call	20002f4 <IO_write>
	IO_write(HPI_DATA,0x02D0); //device address
 2001e2c:	0140b404 	movi	r5,720
 2001e30:	0009883a 	mov	r4,zero
 2001e34:	20002f40 	call	20002f4 <IO_write>
	IO_write(HPI_DATA,0x0001);
 2001e38:	01400044 	movi	r5,1
 2001e3c:	0009883a 	mov	r4,zero
 2001e40:	20002f40 	call	20002f4 <IO_write>
	IO_write(HPI_DATA,0x0013);
 2001e44:	014004c4 	movi	r5,19
 2001e48:	0009883a 	mov	r4,zero
 2001e4c:	20002f40 	call	20002f4 <IO_write>
	IO_write(HPI_DATA,0x0514);
 2001e50:	01414504 	movi	r5,1300
 2001e54:	0009883a 	mov	r4,zero
 2001e58:	20002f40 	call	20002f4 <IO_write>

	//td content 4 bytes
	IO_write(HPI_DATA,0x0681);//c
 2001e5c:	0141a044 	movi	r5,1665
 2001e60:	0009883a 	mov	r4,zero
 2001e64:	20002f40 	call	20002f4 <IO_write>
	IO_write(HPI_DATA,0x2200);//e //report 0x22
 2001e68:	01488004 	movi	r5,8704
 2001e6c:	0009883a 	mov	r4,zero
 2001e70:	20002f40 	call	20002f4 <IO_write>
	IO_write(HPI_DATA,0x0000);//0
 2001e74:	000b883a 	mov	r5,zero
 2001e78:	0009883a 	mov	r4,zero
 2001e7c:	20002f40 	call	20002f4 <IO_write>
	IO_write(HPI_DATA,0x007B);//2
 2001e80:	01401ec4 	movi	r5,123
 2001e84:	0009883a 	mov	r4,zero
 2001e88:	20002f40 	call	20002f4 <IO_write>

	//data phase IN-1
	IO_write(HPI_DATA,0x0580); //514
 2001e8c:	01416004 	movi	r5,1408
 2001e90:	0009883a 	mov	r4,zero
 2001e94:	20002f40 	call	20002f4 <IO_write>
	IO_write(HPI_DATA,0x0008);//6
 2001e98:	01400204 	movi	r5,8
 2001e9c:	0009883a 	mov	r4,zero
 2001ea0:	20002f40 	call	20002f4 <IO_write>
	IO_write(HPI_DATA,0x0290);//8
 2001ea4:	0140a404 	movi	r5,656
 2001ea8:	0009883a 	mov	r4,zero
 2001eac:	20002f40 	call	20002f4 <IO_write>
	IO_write(HPI_DATA,0x0041);//a
 2001eb0:	01401044 	movi	r5,65
 2001eb4:	0009883a 	mov	r4,zero
 2001eb8:	20002f40 	call	20002f4 <IO_write>
	IO_write(HPI_DATA,0x0013);//c
 2001ebc:	014004c4 	movi	r5,19
 2001ec0:	0009883a 	mov	r4,zero
 2001ec4:	20002f40 	call	20002f4 <IO_write>
	IO_write(HPI_DATA,0x0520);//e
 2001ec8:	01414804 	movi	r5,1312
 2001ecc:	0009883a 	mov	r4,zero
 2001ed0:	20002f40 	call	20002f4 <IO_write>

	//data phase IN-2
	IO_write(HPI_DATA,0x0588); //520
 2001ed4:	01416204 	movi	r5,1416
 2001ed8:	0009883a 	mov	r4,zero
 2001edc:	20002f40 	call	20002f4 <IO_write>
	IO_write(HPI_DATA,0x0008);//2
 2001ee0:	01400204 	movi	r5,8
 2001ee4:	0009883a 	mov	r4,zero
 2001ee8:	20002f40 	call	20002f4 <IO_write>
	IO_write(HPI_DATA,0x0290);//4
 2001eec:	0140a404 	movi	r5,656
 2001ef0:	0009883a 	mov	r4,zero
 2001ef4:	20002f40 	call	20002f4 <IO_write>
	IO_write(HPI_DATA,0x0001);//6 //data0
 2001ef8:	01400044 	movi	r5,1
 2001efc:	0009883a 	mov	r4,zero
 2001f00:	20002f40 	call	20002f4 <IO_write>
	IO_write(HPI_DATA,0x0013);//8
 2001f04:	014004c4 	movi	r5,19
 2001f08:	0009883a 	mov	r4,zero
 2001f0c:	20002f40 	call	20002f4 <IO_write>
	IO_write(HPI_DATA,0x052c);//a
 2001f10:	01414b04 	movi	r5,1324
 2001f14:	0009883a 	mov	r4,zero
 2001f18:	20002f40 	call	20002f4 <IO_write>

	//data phase IN-3
	IO_write(HPI_DATA,0x0590); //52c
 2001f1c:	01416404 	movi	r5,1424
 2001f20:	0009883a 	mov	r4,zero
 2001f24:	20002f40 	call	20002f4 <IO_write>
	IO_write(HPI_DATA,0x0008);//e
 2001f28:	01400204 	movi	r5,8
 2001f2c:	0009883a 	mov	r4,zero
 2001f30:	20002f40 	call	20002f4 <IO_write>
	IO_write(HPI_DATA,0x0290);//530
 2001f34:	0140a404 	movi	r5,656
 2001f38:	0009883a 	mov	r4,zero
 2001f3c:	20002f40 	call	20002f4 <IO_write>
	IO_write(HPI_DATA,0x0041);//2
 2001f40:	01401044 	movi	r5,65
 2001f44:	0009883a 	mov	r4,zero
 2001f48:	20002f40 	call	20002f4 <IO_write>
	IO_write(HPI_DATA,0x0013);//4
 2001f4c:	014004c4 	movi	r5,19
 2001f50:	0009883a 	mov	r4,zero
 2001f54:	20002f40 	call	20002f4 <IO_write>
	IO_write(HPI_DATA,0x0538);//6
 2001f58:	01414e04 	movi	r5,1336
 2001f5c:	0009883a 	mov	r4,zero
 2001f60:	20002f40 	call	20002f4 <IO_write>

	//data phase IN-4
	IO_write(HPI_DATA,0x0598); //538
 2001f64:	01416604 	movi	r5,1432
 2001f68:	0009883a 	mov	r4,zero
 2001f6c:	20002f40 	call	20002f4 <IO_write>
	IO_write(HPI_DATA,0x0008);//a
 2001f70:	01400204 	movi	r5,8
 2001f74:	0009883a 	mov	r4,zero
 2001f78:	20002f40 	call	20002f4 <IO_write>
	IO_write(HPI_DATA,0x0290);//c
 2001f7c:	0140a404 	movi	r5,656
 2001f80:	0009883a 	mov	r4,zero
 2001f84:	20002f40 	call	20002f4 <IO_write>
	IO_write(HPI_DATA,0x0001);//e //data0
 2001f88:	01400044 	movi	r5,1
 2001f8c:	0009883a 	mov	r4,zero
 2001f90:	20002f40 	call	20002f4 <IO_write>
	IO_write(HPI_DATA,0x0013);//540
 2001f94:	014004c4 	movi	r5,19
 2001f98:	0009883a 	mov	r4,zero
 2001f9c:	20002f40 	call	20002f4 <IO_write>
	IO_write(HPI_DATA,0x0544);//2
 2001fa0:	01415104 	movi	r5,1348
 2001fa4:	0009883a 	mov	r4,zero
 2001fa8:	20002f40 	call	20002f4 <IO_write>

	//data phase IN-5
	IO_write(HPI_DATA,0x05a0); //544
 2001fac:	01416804 	movi	r5,1440
 2001fb0:	0009883a 	mov	r4,zero
 2001fb4:	20002f40 	call	20002f4 <IO_write>
	IO_write(HPI_DATA,0x0008);//6
 2001fb8:	01400204 	movi	r5,8
 2001fbc:	0009883a 	mov	r4,zero
 2001fc0:	20002f40 	call	20002f4 <IO_write>
	IO_write(HPI_DATA,0x0290);//8
 2001fc4:	0140a404 	movi	r5,656
 2001fc8:	0009883a 	mov	r4,zero
 2001fcc:	20002f40 	call	20002f4 <IO_write>
	IO_write(HPI_DATA,0x0041);//a //data1
 2001fd0:	01401044 	movi	r5,65
 2001fd4:	0009883a 	mov	r4,zero
 2001fd8:	20002f40 	call	20002f4 <IO_write>
	IO_write(HPI_DATA,0x0013);//c
 2001fdc:	014004c4 	movi	r5,19
 2001fe0:	0009883a 	mov	r4,zero
 2001fe4:	20002f40 	call	20002f4 <IO_write>
	IO_write(HPI_DATA,0x0550);//e
 2001fe8:	01415404 	movi	r5,1360
 2001fec:	0009883a 	mov	r4,zero
 2001ff0:	20002f40 	call	20002f4 <IO_write>

	//data phase IN-6
	IO_write(HPI_DATA,0x05a8); //550
 2001ff4:	01416a04 	movi	r5,1448
 2001ff8:	0009883a 	mov	r4,zero
 2001ffc:	20002f40 	call	20002f4 <IO_write>
	IO_write(HPI_DATA,0x0008);//2
 2002000:	01400204 	movi	r5,8
 2002004:	0009883a 	mov	r4,zero
 2002008:	20002f40 	call	20002f4 <IO_write>
	IO_write(HPI_DATA,0x0290);//4
 200200c:	0140a404 	movi	r5,656
 2002010:	0009883a 	mov	r4,zero
 2002014:	20002f40 	call	20002f4 <IO_write>
	IO_write(HPI_DATA,0x0001);//6 //data0
 2002018:	01400044 	movi	r5,1
 200201c:	0009883a 	mov	r4,zero
 2002020:	20002f40 	call	20002f4 <IO_write>
	IO_write(HPI_DATA,0x0013);//8
 2002024:	014004c4 	movi	r5,19
 2002028:	0009883a 	mov	r4,zero
 200202c:	20002f40 	call	20002f4 <IO_write>
	IO_write(HPI_DATA,0x055c);//a
 2002030:	01415704 	movi	r5,1372
 2002034:	0009883a 	mov	r4,zero
 2002038:	20002f40 	call	20002f4 <IO_write>

	//data phase IN-7
	IO_write(HPI_DATA,0x05b0); //c
 200203c:	01416c04 	movi	r5,1456
 2002040:	0009883a 	mov	r4,zero
 2002044:	20002f40 	call	20002f4 <IO_write>
	IO_write(HPI_DATA,0x0008);//e
 2002048:	01400204 	movi	r5,8
 200204c:	0009883a 	mov	r4,zero
 2002050:	20002f40 	call	20002f4 <IO_write>
	IO_write(HPI_DATA,0x0290);//560
 2002054:	0140a404 	movi	r5,656
 2002058:	0009883a 	mov	r4,zero
 200205c:	20002f40 	call	20002f4 <IO_write>
	IO_write(HPI_DATA,0x0041);//2 //data1
 2002060:	01401044 	movi	r5,65
 2002064:	0009883a 	mov	r4,zero
 2002068:	20002f40 	call	20002f4 <IO_write>
	IO_write(HPI_DATA,0x0013);//4
 200206c:	014004c4 	movi	r5,19
 2002070:	0009883a 	mov	r4,zero
 2002074:	20002f40 	call	20002f4 <IO_write>
	IO_write(HPI_DATA,0x0568);//6
 2002078:	01415a04 	movi	r5,1384
 200207c:	0009883a 	mov	r4,zero
 2002080:	20002f40 	call	20002f4 <IO_write>

	//data phase IN-8
	IO_write(HPI_DATA,0x05b8); //8
 2002084:	01416e04 	movi	r5,1464
 2002088:	0009883a 	mov	r4,zero
 200208c:	20002f40 	call	20002f4 <IO_write>
	IO_write(HPI_DATA,0x0003);//a
 2002090:	014000c4 	movi	r5,3
 2002094:	0009883a 	mov	r4,zero
 2002098:	20002f40 	call	20002f4 <IO_write>
	IO_write(HPI_DATA,0x0290);//c
 200209c:	0140a404 	movi	r5,656
 20020a0:	0009883a 	mov	r4,zero
 20020a4:	20002f40 	call	20002f4 <IO_write>
	IO_write(HPI_DATA,0x0001);//e //data0
 20020a8:	01400044 	movi	r5,1
 20020ac:	0009883a 	mov	r4,zero
 20020b0:	20002f40 	call	20002f4 <IO_write>
	IO_write(HPI_DATA,0x0013);//570
 20020b4:	014004c4 	movi	r5,19
 20020b8:	0009883a 	mov	r4,zero
 20020bc:	20002f40 	call	20002f4 <IO_write>
	IO_write(HPI_DATA,0x0574);//2
 20020c0:	01415d04 	movi	r5,1396
 20020c4:	0009883a 	mov	r4,zero
 20020c8:	20002f40 	call	20002f4 <IO_write>

	//status phase
	IO_write(HPI_DATA,0x0000); //574
 20020cc:	000b883a 	mov	r5,zero
 20020d0:	0009883a 	mov	r4,zero
 20020d4:	20002f40 	call	20002f4 <IO_write>
	IO_write(HPI_DATA,0x0000);//6
 20020d8:	000b883a 	mov	r5,zero
 20020dc:	0009883a 	mov	r4,zero
 20020e0:	20002f40 	call	20002f4 <IO_write>
	IO_write(HPI_DATA,0x0210);//8
 20020e4:	01408404 	movi	r5,528
 20020e8:	0009883a 	mov	r4,zero
 20020ec:	20002f40 	call	20002f4 <IO_write>
	IO_write(HPI_DATA,0x0041);//a
 20020f0:	01401044 	movi	r5,65
 20020f4:	0009883a 	mov	r4,zero
 20020f8:	20002f40 	call	20002f4 <IO_write>
	IO_write(HPI_DATA,0x0013);//c
 20020fc:	014004c4 	movi	r5,19
 2002100:	0009883a 	mov	r4,zero
 2002104:	20002f40 	call	20002f4 <IO_write>
	IO_write(HPI_DATA,0x0000);//e
 2002108:	000b883a 	mov	r5,zero
 200210c:	0009883a 	mov	r4,zero
 2002110:	20002f40 	call	20002f4 <IO_write>

	UsbWrite(HUSB_SIE1_pCurrentTDPtr,0x0500); //HUSB_SIE1_pCurrentTDPtr
 2002114:	01414004 	movi	r5,1280
 2002118:	01006c04 	movi	r4,432
 200211c:	20011480 	call	2001148 <UsbWrite>

}
 2002120:	0001883a 	nop
 2002124:	e037883a 	mov	sp,fp
 2002128:	dfc00117 	ldw	ra,4(sp)
 200212c:	df000017 	ldw	fp,0(sp)
 2002130:	dec00204 	addi	sp,sp,8
 2002134:	f800283a 	ret

02002138 <UsbWaitTDListDone>:


alt_u16 UsbWaitTDListDone()
{
 2002138:	defffd04 	addi	sp,sp,-12
 200213c:	dfc00215 	stw	ra,8(sp)
 2002140:	df000115 	stw	fp,4(sp)
 2002144:	df000104 	addi	fp,sp,4
	alt_u16 usb_ctl_val;

	usb_ctl_val = UsbRead(HPI_SIE1_MSG_ADR); // STEP 3 j
 2002148:	01005104 	movi	r4,324
 200214c:	20011a00 	call	20011a0 <UsbRead>
 2002150:	e0bfff0d 	sth	r2,-4(fp)
	UsbWrite(HPI_SIE1_MSG_ADR, 0);
 2002154:	000b883a 	mov	r5,zero
 2002158:	01005104 	movi	r4,324
 200215c:	20011480 	call	2001148 <UsbWrite>
	while (usb_ctl_val != HUSB_TDListDone)  // k, read sie1 msg register
 2002160:	00000d06 	br	2002198 <UsbWaitTDListDone+0x60>
	{
		if(usb_ctl_val == 0x0000)
 2002164:	e0bfff0b 	ldhu	r2,-4(fp)
 2002168:	10000526 	beq	r2,zero,2002180 <UsbWaitTDListDone+0x48>
		{
		}
		else
		{
			printf("[SIE1 MSG]:SIE1 msg reg is %x\n",usb_ctl_val);
 200216c:	e0bfff0b 	ldhu	r2,-4(fp)
 2002170:	100b883a 	mov	r5,r2
 2002174:	01008074 	movhi	r4,513
 2002178:	21085904 	addi	r4,r4,8548
 200217c:	20022ec0 	call	20022ec <printf>
		}
		usb_ctl_val = UsbRead(HPI_SIE1_MSG_ADR);
 2002180:	01005104 	movi	r4,324
 2002184:	20011a00 	call	20011a0 <UsbRead>
 2002188:	e0bfff0d 	sth	r2,-4(fp)
		UsbWrite(HPI_SIE1_MSG_ADR, 0);
 200218c:	000b883a 	mov	r5,zero
 2002190:	01005104 	movi	r4,324
 2002194:	20011480 	call	2001148 <UsbWrite>
{
	alt_u16 usb_ctl_val;

	usb_ctl_val = UsbRead(HPI_SIE1_MSG_ADR); // STEP 3 j
	UsbWrite(HPI_SIE1_MSG_ADR, 0);
	while (usb_ctl_val != HUSB_TDListDone)  // k, read sie1 msg register
 2002198:	e0bfff0b 	ldhu	r2,-4(fp)
 200219c:	10840018 	cmpnei	r2,r2,4096
 20021a0:	103ff01e 	bne	r2,zero,2002164 <__alt_data_end+0xff002164>
		}
		usb_ctl_val = UsbRead(HPI_SIE1_MSG_ADR);
		UsbWrite(HPI_SIE1_MSG_ADR, 0);
	}

	return usb_ctl_val;
 20021a4:	e0bfff0b 	ldhu	r2,-4(fp)
}
 20021a8:	e037883a 	mov	sp,fp
 20021ac:	dfc00117 	ldw	ra,4(sp)
 20021b0:	df000017 	ldw	fp,0(sp)
 20021b4:	dec00204 	addi	sp,sp,8
 20021b8:	f800283a 	ret

020021bc <UsbGetRetryCnt>:


alt_u16 UsbGetRetryCnt()
{
 20021bc:	defffd04 	addi	sp,sp,-12
 20021c0:	dfc00215 	stw	ra,8(sp)
 20021c4:	df000115 	stw	fp,4(sp)
 20021c8:	df000104 	addi	fp,sp,4
	alt_u16 usb_ctl_val;

	IO_read(HPI_STATUS);
 20021cc:	010000c4 	movi	r4,3
 20021d0:	20003640 	call	2000364 <IO_read>
	if(UsbRead(HPI_SIE1_MSG_ADR) == HUSB_TDListDone)
 20021d4:	01005104 	movi	r4,324
 20021d8:	20011a00 	call	20011a0 <UsbRead>
 20021dc:	10bfffcc 	andi	r2,r2,65535
 20021e0:	10840018 	cmpnei	r2,r2,4096
 20021e4:	1000091e 	bne	r2,zero,200220c <UsbGetRetryCnt+0x50>
	{
		UsbWrite(HPI_SIE1_MSG_ADR, 0);
 20021e8:	000b883a 	mov	r5,zero
 20021ec:	01005104 	movi	r4,324
 20021f0:	20011480 	call	2001148 <UsbWrite>

		while (!(IO_read(HPI_STATUS) & HPI_STATUS_SIE1msg_FLAG) )  //read sie1 msg register
 20021f4:	0001883a 	nop
 20021f8:	010000c4 	movi	r4,3
 20021fc:	20003640 	call	2000364 <IO_read>
 2002200:	10bfffcc 	andi	r2,r2,65535
 2002204:	1080040c 	andi	r2,r2,16
 2002208:	103ffb26 	beq	r2,zero,20021f8 <__alt_data_end+0xff0021f8>
		{
		}
	}
	//usleep(1000);
	IO_write(HPI_ADDR,0x0508);
 200220c:	01414204 	movi	r5,1288
 2002210:	01000084 	movi	r4,2
 2002214:	20002f40 	call	20002f4 <IO_write>
	usb_ctl_val = IO_read(HPI_DATA);
 2002218:	0009883a 	mov	r4,zero
 200221c:	20003640 	call	2000364 <IO_read>
 2002220:	e0bfff0d 	sth	r2,-4(fp)

	return usb_ctl_val;
 2002224:	e0bfff0b 	ldhu	r2,-4(fp)
}
 2002228:	e037883a 	mov	sp,fp
 200222c:	dfc00117 	ldw	ra,4(sp)
 2002230:	df000017 	ldw	fp,0(sp)
 2002234:	dec00204 	addi	sp,sp,8
 2002238:	f800283a 	ret

0200223c <UsbPrintMem>:


void UsbPrintMem()
{
 200223c:	defffc04 	addi	sp,sp,-16
 2002240:	dfc00315 	stw	ra,12(sp)
 2002244:	df000215 	stw	fp,8(sp)
 2002248:	df000204 	addi	fp,sp,8
	int i, code;
	IO_write(HPI_ADDR,0x0500); //the start address
 200224c:	01414004 	movi	r5,1280
 2002250:	01000084 	movi	r4,2
 2002254:	20002f40 	call	20002f4 <IO_write>
	for (i = 0; i <= 200; i += 2)
 2002258:	e03ffe15 	stw	zero,-8(fp)
 200225c:	00000e06 	br	2002298 <UsbPrintMem+0x5c>
	{
		code = IO_read(HPI_DATA);
 2002260:	0009883a 	mov	r4,zero
 2002264:	20003640 	call	2000364 <IO_read>
 2002268:	10bfffcc 	andi	r2,r2,65535
 200226c:	e0bfff15 	stw	r2,-4(fp)
		printf("\naddr %x = %04x\n", 0x0500+i, code);
 2002270:	e0bffe17 	ldw	r2,-8(fp)
 2002274:	10814004 	addi	r2,r2,1280
 2002278:	e1bfff17 	ldw	r6,-4(fp)
 200227c:	100b883a 	mov	r5,r2
 2002280:	01008074 	movhi	r4,513
 2002284:	21086104 	addi	r4,r4,8580
 2002288:	20022ec0 	call	20022ec <printf>

void UsbPrintMem()
{
	int i, code;
	IO_write(HPI_ADDR,0x0500); //the start address
	for (i = 0; i <= 200; i += 2)
 200228c:	e0bffe17 	ldw	r2,-8(fp)
 2002290:	10800084 	addi	r2,r2,2
 2002294:	e0bffe15 	stw	r2,-8(fp)
 2002298:	e0bffe17 	ldw	r2,-8(fp)
 200229c:	10803250 	cmplti	r2,r2,201
 20022a0:	103fef1e 	bne	r2,zero,2002260 <__alt_data_end+0xff002260>
	{
		code = IO_read(HPI_DATA);
		printf("\naddr %x = %04x\n", 0x0500+i, code);
	}
}
 20022a4:	0001883a 	nop
 20022a8:	e037883a 	mov	sp,fp
 20022ac:	dfc00117 	ldw	ra,4(sp)
 20022b0:	df000017 	ldw	fp,0(sp)
 20022b4:	dec00204 	addi	sp,sp,8
 20022b8:	f800283a 	ret

020022bc <_printf_r>:
 20022bc:	defffd04 	addi	sp,sp,-12
 20022c0:	2805883a 	mov	r2,r5
 20022c4:	dfc00015 	stw	ra,0(sp)
 20022c8:	d9800115 	stw	r6,4(sp)
 20022cc:	d9c00215 	stw	r7,8(sp)
 20022d0:	21400217 	ldw	r5,8(r4)
 20022d4:	d9c00104 	addi	r7,sp,4
 20022d8:	100d883a 	mov	r6,r2
 20022dc:	20024940 	call	2002494 <___vfprintf_internal_r>
 20022e0:	dfc00017 	ldw	ra,0(sp)
 20022e4:	dec00304 	addi	sp,sp,12
 20022e8:	f800283a 	ret

020022ec <printf>:
 20022ec:	defffc04 	addi	sp,sp,-16
 20022f0:	dfc00015 	stw	ra,0(sp)
 20022f4:	d9400115 	stw	r5,4(sp)
 20022f8:	d9800215 	stw	r6,8(sp)
 20022fc:	d9c00315 	stw	r7,12(sp)
 2002300:	00808074 	movhi	r2,513
 2002304:	108fd204 	addi	r2,r2,16200
 2002308:	10800017 	ldw	r2,0(r2)
 200230c:	200b883a 	mov	r5,r4
 2002310:	d9800104 	addi	r6,sp,4
 2002314:	11000217 	ldw	r4,8(r2)
 2002318:	20047700 	call	2004770 <__vfprintf_internal>
 200231c:	dfc00017 	ldw	ra,0(sp)
 2002320:	dec00404 	addi	sp,sp,16
 2002324:	f800283a 	ret

02002328 <_puts_r>:
 2002328:	defff604 	addi	sp,sp,-40
 200232c:	dc000715 	stw	r16,28(sp)
 2002330:	2021883a 	mov	r16,r4
 2002334:	2809883a 	mov	r4,r5
 2002338:	dc400815 	stw	r17,32(sp)
 200233c:	dfc00915 	stw	ra,36(sp)
 2002340:	2823883a 	mov	r17,r5
 2002344:	20023fc0 	call	20023fc <strlen>
 2002348:	10c00044 	addi	r3,r2,1
 200234c:	d8800115 	stw	r2,4(sp)
 2002350:	00808074 	movhi	r2,513
 2002354:	10886604 	addi	r2,r2,8600
 2002358:	d8800215 	stw	r2,8(sp)
 200235c:	00800044 	movi	r2,1
 2002360:	d8800315 	stw	r2,12(sp)
 2002364:	00800084 	movi	r2,2
 2002368:	dc400015 	stw	r17,0(sp)
 200236c:	d8c00615 	stw	r3,24(sp)
 2002370:	dec00415 	stw	sp,16(sp)
 2002374:	d8800515 	stw	r2,20(sp)
 2002378:	80000226 	beq	r16,zero,2002384 <_puts_r+0x5c>
 200237c:	80800e17 	ldw	r2,56(r16)
 2002380:	10001426 	beq	r2,zero,20023d4 <_puts_r+0xac>
 2002384:	81400217 	ldw	r5,8(r16)
 2002388:	2880030b 	ldhu	r2,12(r5)
 200238c:	10c8000c 	andi	r3,r2,8192
 2002390:	1800061e 	bne	r3,zero,20023ac <_puts_r+0x84>
 2002394:	29001917 	ldw	r4,100(r5)
 2002398:	00f7ffc4 	movi	r3,-8193
 200239c:	10880014 	ori	r2,r2,8192
 20023a0:	20c6703a 	and	r3,r4,r3
 20023a4:	2880030d 	sth	r2,12(r5)
 20023a8:	28c01915 	stw	r3,100(r5)
 20023ac:	d9800404 	addi	r6,sp,16
 20023b0:	8009883a 	mov	r4,r16
 20023b4:	2006cd80 	call	2006cd8 <__sfvwrite_r>
 20023b8:	1000091e 	bne	r2,zero,20023e0 <_puts_r+0xb8>
 20023bc:	00800284 	movi	r2,10
 20023c0:	dfc00917 	ldw	ra,36(sp)
 20023c4:	dc400817 	ldw	r17,32(sp)
 20023c8:	dc000717 	ldw	r16,28(sp)
 20023cc:	dec00a04 	addi	sp,sp,40
 20023d0:	f800283a 	ret
 20023d4:	8009883a 	mov	r4,r16
 20023d8:	20068540 	call	2006854 <__sinit>
 20023dc:	003fe906 	br	2002384 <__alt_data_end+0xff002384>
 20023e0:	00bfffc4 	movi	r2,-1
 20023e4:	003ff606 	br	20023c0 <__alt_data_end+0xff0023c0>

020023e8 <puts>:
 20023e8:	00808074 	movhi	r2,513
 20023ec:	108fd204 	addi	r2,r2,16200
 20023f0:	200b883a 	mov	r5,r4
 20023f4:	11000017 	ldw	r4,0(r2)
 20023f8:	20023281 	jmpi	2002328 <_puts_r>

020023fc <strlen>:
 20023fc:	208000cc 	andi	r2,r4,3
 2002400:	10002026 	beq	r2,zero,2002484 <strlen+0x88>
 2002404:	20800007 	ldb	r2,0(r4)
 2002408:	10002026 	beq	r2,zero,200248c <strlen+0x90>
 200240c:	2005883a 	mov	r2,r4
 2002410:	00000206 	br	200241c <strlen+0x20>
 2002414:	10c00007 	ldb	r3,0(r2)
 2002418:	18001826 	beq	r3,zero,200247c <strlen+0x80>
 200241c:	10800044 	addi	r2,r2,1
 2002420:	10c000cc 	andi	r3,r2,3
 2002424:	183ffb1e 	bne	r3,zero,2002414 <__alt_data_end+0xff002414>
 2002428:	10c00017 	ldw	r3,0(r2)
 200242c:	01ffbff4 	movhi	r7,65279
 2002430:	39ffbfc4 	addi	r7,r7,-257
 2002434:	00ca303a 	nor	r5,zero,r3
 2002438:	01a02074 	movhi	r6,32897
 200243c:	19c7883a 	add	r3,r3,r7
 2002440:	31a02004 	addi	r6,r6,-32640
 2002444:	1946703a 	and	r3,r3,r5
 2002448:	1986703a 	and	r3,r3,r6
 200244c:	1800091e 	bne	r3,zero,2002474 <strlen+0x78>
 2002450:	10800104 	addi	r2,r2,4
 2002454:	10c00017 	ldw	r3,0(r2)
 2002458:	19cb883a 	add	r5,r3,r7
 200245c:	00c6303a 	nor	r3,zero,r3
 2002460:	28c6703a 	and	r3,r5,r3
 2002464:	1986703a 	and	r3,r3,r6
 2002468:	183ff926 	beq	r3,zero,2002450 <__alt_data_end+0xff002450>
 200246c:	00000106 	br	2002474 <strlen+0x78>
 2002470:	10800044 	addi	r2,r2,1
 2002474:	10c00007 	ldb	r3,0(r2)
 2002478:	183ffd1e 	bne	r3,zero,2002470 <__alt_data_end+0xff002470>
 200247c:	1105c83a 	sub	r2,r2,r4
 2002480:	f800283a 	ret
 2002484:	2005883a 	mov	r2,r4
 2002488:	003fe706 	br	2002428 <__alt_data_end+0xff002428>
 200248c:	0005883a 	mov	r2,zero
 2002490:	f800283a 	ret

02002494 <___vfprintf_internal_r>:
 2002494:	deffb804 	addi	sp,sp,-288
 2002498:	dfc04715 	stw	ra,284(sp)
 200249c:	ddc04515 	stw	r23,276(sp)
 20024a0:	dd404315 	stw	r21,268(sp)
 20024a4:	d9002d15 	stw	r4,180(sp)
 20024a8:	282f883a 	mov	r23,r5
 20024ac:	302b883a 	mov	r21,r6
 20024b0:	d9c02e15 	stw	r7,184(sp)
 20024b4:	df004615 	stw	fp,280(sp)
 20024b8:	dd804415 	stw	r22,272(sp)
 20024bc:	dd004215 	stw	r20,264(sp)
 20024c0:	dcc04115 	stw	r19,260(sp)
 20024c4:	dc804015 	stw	r18,256(sp)
 20024c8:	dc403f15 	stw	r17,252(sp)
 20024cc:	dc003e15 	stw	r16,248(sp)
 20024d0:	20073d40 	call	20073d4 <_localeconv_r>
 20024d4:	10800017 	ldw	r2,0(r2)
 20024d8:	1009883a 	mov	r4,r2
 20024dc:	d8803415 	stw	r2,208(sp)
 20024e0:	20023fc0 	call	20023fc <strlen>
 20024e4:	d8803715 	stw	r2,220(sp)
 20024e8:	d8802d17 	ldw	r2,180(sp)
 20024ec:	10000226 	beq	r2,zero,20024f8 <___vfprintf_internal_r+0x64>
 20024f0:	10800e17 	ldw	r2,56(r2)
 20024f4:	1000fb26 	beq	r2,zero,20028e4 <___vfprintf_internal_r+0x450>
 20024f8:	b880030b 	ldhu	r2,12(r23)
 20024fc:	10c8000c 	andi	r3,r2,8192
 2002500:	1800061e 	bne	r3,zero,200251c <___vfprintf_internal_r+0x88>
 2002504:	b9001917 	ldw	r4,100(r23)
 2002508:	00f7ffc4 	movi	r3,-8193
 200250c:	10880014 	ori	r2,r2,8192
 2002510:	20c6703a 	and	r3,r4,r3
 2002514:	b880030d 	sth	r2,12(r23)
 2002518:	b8c01915 	stw	r3,100(r23)
 200251c:	10c0020c 	andi	r3,r2,8
 2002520:	1800c326 	beq	r3,zero,2002830 <___vfprintf_internal_r+0x39c>
 2002524:	b8c00417 	ldw	r3,16(r23)
 2002528:	1800c126 	beq	r3,zero,2002830 <___vfprintf_internal_r+0x39c>
 200252c:	1080068c 	andi	r2,r2,26
 2002530:	00c00284 	movi	r3,10
 2002534:	10c0c626 	beq	r2,r3,2002850 <___vfprintf_internal_r+0x3bc>
 2002538:	d8c00404 	addi	r3,sp,16
 200253c:	05008074 	movhi	r20,513
 2002540:	d9001e04 	addi	r4,sp,120
 2002544:	a5087784 	addi	r20,r20,8670
 2002548:	d8c01e15 	stw	r3,120(sp)
 200254c:	d8002015 	stw	zero,128(sp)
 2002550:	d8001f15 	stw	zero,124(sp)
 2002554:	d8003315 	stw	zero,204(sp)
 2002558:	d8003615 	stw	zero,216(sp)
 200255c:	d8003815 	stw	zero,224(sp)
 2002560:	1811883a 	mov	r8,r3
 2002564:	d8003915 	stw	zero,228(sp)
 2002568:	d8003a15 	stw	zero,232(sp)
 200256c:	d8002f15 	stw	zero,188(sp)
 2002570:	d9002815 	stw	r4,160(sp)
 2002574:	a8800007 	ldb	r2,0(r21)
 2002578:	10028b26 	beq	r2,zero,2002fa8 <___vfprintf_internal_r+0xb14>
 200257c:	00c00944 	movi	r3,37
 2002580:	a823883a 	mov	r17,r21
 2002584:	10c0021e 	bne	r2,r3,2002590 <___vfprintf_internal_r+0xfc>
 2002588:	00001406 	br	20025dc <___vfprintf_internal_r+0x148>
 200258c:	10c00326 	beq	r2,r3,200259c <___vfprintf_internal_r+0x108>
 2002590:	8c400044 	addi	r17,r17,1
 2002594:	88800007 	ldb	r2,0(r17)
 2002598:	103ffc1e 	bne	r2,zero,200258c <__alt_data_end+0xff00258c>
 200259c:	8d61c83a 	sub	r16,r17,r21
 20025a0:	80000e26 	beq	r16,zero,20025dc <___vfprintf_internal_r+0x148>
 20025a4:	d8c02017 	ldw	r3,128(sp)
 20025a8:	d8801f17 	ldw	r2,124(sp)
 20025ac:	45400015 	stw	r21,0(r8)
 20025b0:	1c07883a 	add	r3,r3,r16
 20025b4:	10800044 	addi	r2,r2,1
 20025b8:	d8c02015 	stw	r3,128(sp)
 20025bc:	44000115 	stw	r16,4(r8)
 20025c0:	d8801f15 	stw	r2,124(sp)
 20025c4:	00c001c4 	movi	r3,7
 20025c8:	1880a916 	blt	r3,r2,2002870 <___vfprintf_internal_r+0x3dc>
 20025cc:	42000204 	addi	r8,r8,8
 20025d0:	d9402f17 	ldw	r5,188(sp)
 20025d4:	2c0b883a 	add	r5,r5,r16
 20025d8:	d9402f15 	stw	r5,188(sp)
 20025dc:	88800007 	ldb	r2,0(r17)
 20025e0:	1000aa26 	beq	r2,zero,200288c <___vfprintf_internal_r+0x3f8>
 20025e4:	8d400044 	addi	r21,r17,1
 20025e8:	8c400047 	ldb	r17,1(r17)
 20025ec:	0021883a 	mov	r16,zero
 20025f0:	00bfffc4 	movi	r2,-1
 20025f4:	0025883a 	mov	r18,zero
 20025f8:	dc002905 	stb	r16,164(sp)
 20025fc:	d8002785 	stb	zero,158(sp)
 2002600:	d8002b05 	stb	zero,172(sp)
 2002604:	d8802a15 	stw	r2,168(sp)
 2002608:	d8003115 	stw	zero,196(sp)
 200260c:	04c01604 	movi	r19,88
 2002610:	05800244 	movi	r22,9
 2002614:	9021883a 	mov	r16,r18
 2002618:	4039883a 	mov	fp,r8
 200261c:	ad400044 	addi	r21,r21,1
 2002620:	88bff804 	addi	r2,r17,-32
 2002624:	98833236 	bltu	r19,r2,20032f0 <___vfprintf_internal_r+0xe5c>
 2002628:	100490ba 	slli	r2,r2,2
 200262c:	00c08034 	movhi	r3,512
 2002630:	18c99004 	addi	r3,r3,9792
 2002634:	10c5883a 	add	r2,r2,r3
 2002638:	10800017 	ldw	r2,0(r2)
 200263c:	1000683a 	jmp	r2
 2002640:	020031e8 	cmpgeui	r8,zero,199
 2002644:	020032f0 	cmpltui	r8,zero,203
 2002648:	020032f0 	cmpltui	r8,zero,203
 200264c:	02003208 	cmpgei	r8,zero,200
 2002650:	020032f0 	cmpltui	r8,zero,203
 2002654:	020032f0 	cmpltui	r8,zero,203
 2002658:	020032f0 	cmpltui	r8,zero,203
 200265c:	020032f0 	cmpltui	r8,zero,203
 2002660:	020032f0 	cmpltui	r8,zero,203
 2002664:	020032f0 	cmpltui	r8,zero,203
 2002668:	020028f0 	cmpltui	r8,zero,163
 200266c:	020030f8 	rdprs	r8,zero,195
 2002670:	020032f0 	cmpltui	r8,zero,203
 2002674:	020027b4 	movhi	r8,158
 2002678:	02002914 	movui	r8,164
 200267c:	020032f0 	cmpltui	r8,zero,203
 2002680:	02002964 	muli	r8,zero,165
 2002684:	02002970 	cmpltui	r8,zero,165
 2002688:	02002970 	cmpltui	r8,zero,165
 200268c:	02002970 	cmpltui	r8,zero,165
 2002690:	02002970 	cmpltui	r8,zero,165
 2002694:	02002970 	cmpltui	r8,zero,165
 2002698:	02002970 	cmpltui	r8,zero,165
 200269c:	02002970 	cmpltui	r8,zero,165
 20026a0:	02002970 	cmpltui	r8,zero,165
 20026a4:	02002970 	cmpltui	r8,zero,165
 20026a8:	020032f0 	cmpltui	r8,zero,203
 20026ac:	020032f0 	cmpltui	r8,zero,203
 20026b0:	020032f0 	cmpltui	r8,zero,203
 20026b4:	020032f0 	cmpltui	r8,zero,203
 20026b8:	020032f0 	cmpltui	r8,zero,203
 20026bc:	020032f0 	cmpltui	r8,zero,203
 20026c0:	020032f0 	cmpltui	r8,zero,203
 20026c4:	020032f0 	cmpltui	r8,zero,203
 20026c8:	020032f0 	cmpltui	r8,zero,203
 20026cc:	020032f0 	cmpltui	r8,zero,203
 20026d0:	020029ac 	andhi	r8,zero,166
 20026d4:	02002a74 	movhi	r8,169
 20026d8:	020032f0 	cmpltui	r8,zero,203
 20026dc:	02002a74 	movhi	r8,169
 20026e0:	020032f0 	cmpltui	r8,zero,203
 20026e4:	020032f0 	cmpltui	r8,zero,203
 20026e8:	020032f0 	cmpltui	r8,zero,203
 20026ec:	020032f0 	cmpltui	r8,zero,203
 20026f0:	02002b20 	cmpeqi	r8,zero,172
 20026f4:	020032f0 	cmpltui	r8,zero,203
 20026f8:	020032f0 	cmpltui	r8,zero,203
 20026fc:	02002b2c 	andhi	r8,zero,172
 2002700:	020032f0 	cmpltui	r8,zero,203
 2002704:	020032f0 	cmpltui	r8,zero,203
 2002708:	020032f0 	cmpltui	r8,zero,203
 200270c:	020032f0 	cmpltui	r8,zero,203
 2002710:	020032f0 	cmpltui	r8,zero,203
 2002714:	02002fb0 	cmpltui	r8,zero,190
 2002718:	020032f0 	cmpltui	r8,zero,203
 200271c:	020032f0 	cmpltui	r8,zero,203
 2002720:	0200301c 	xori	r8,zero,192
 2002724:	020032f0 	cmpltui	r8,zero,203
 2002728:	020032f0 	cmpltui	r8,zero,203
 200272c:	020032f0 	cmpltui	r8,zero,203
 2002730:	020032f0 	cmpltui	r8,zero,203
 2002734:	020032f0 	cmpltui	r8,zero,203
 2002738:	020032f0 	cmpltui	r8,zero,203
 200273c:	020032f0 	cmpltui	r8,zero,203
 2002740:	020032f0 	cmpltui	r8,zero,203
 2002744:	020032f0 	cmpltui	r8,zero,203
 2002748:	020032f0 	cmpltui	r8,zero,203
 200274c:	02003294 	movui	r8,202
 2002750:	02003214 	movui	r8,200
 2002754:	02002a74 	movhi	r8,169
 2002758:	02002a74 	movhi	r8,169
 200275c:	02002a74 	movhi	r8,169
 2002760:	02003234 	movhi	r8,200
 2002764:	02003214 	movui	r8,200
 2002768:	020032f0 	cmpltui	r8,zero,203
 200276c:	020032f0 	cmpltui	r8,zero,203
 2002770:	02003240 	call	200324 <__alt_mem_onchip_memory2_0+0x200324>
 2002774:	020032f0 	cmpltui	r8,zero,203
 2002778:	02003254 	movui	r8,201
 200277c:	020030d8 	cmpnei	r8,zero,195
 2002780:	020027c0 	call	20027c <__alt_mem_onchip_memory2_0+0x20027c>
 2002784:	02003110 	cmplti	r8,zero,196
 2002788:	020032f0 	cmpltui	r8,zero,203
 200278c:	0200311c 	xori	r8,zero,196
 2002790:	020032f0 	cmpltui	r8,zero,203
 2002794:	02003180 	call	200318 <__alt_mem_onchip_memory2_0+0x200318>
 2002798:	020032f0 	cmpltui	r8,zero,203
 200279c:	020032f0 	cmpltui	r8,zero,203
 20027a0:	020031a0 	cmpeqi	r8,zero,198
 20027a4:	d8c03117 	ldw	r3,196(sp)
 20027a8:	d8802e15 	stw	r2,184(sp)
 20027ac:	00c7c83a 	sub	r3,zero,r3
 20027b0:	d8c03115 	stw	r3,196(sp)
 20027b4:	84000114 	ori	r16,r16,4
 20027b8:	ac400007 	ldb	r17,0(r21)
 20027bc:	003f9706 	br	200261c <__alt_data_end+0xff00261c>
 20027c0:	00800c04 	movi	r2,48
 20027c4:	d8802705 	stb	r2,156(sp)
 20027c8:	00801e04 	movi	r2,120
 20027cc:	d8802745 	stb	r2,157(sp)
 20027d0:	d9002a17 	ldw	r4,168(sp)
 20027d4:	d8802e17 	ldw	r2,184(sp)
 20027d8:	d8002785 	stb	zero,158(sp)
 20027dc:	e011883a 	mov	r8,fp
 20027e0:	10c00104 	addi	r3,r2,4
 20027e4:	14c00017 	ldw	r19,0(r2)
 20027e8:	002d883a 	mov	r22,zero
 20027ec:	80800094 	ori	r2,r16,2
 20027f0:	2002ca16 	blt	r4,zero,200331c <___vfprintf_internal_r+0xe88>
 20027f4:	00bfdfc4 	movi	r2,-129
 20027f8:	80a4703a 	and	r18,r16,r2
 20027fc:	d8c02e15 	stw	r3,184(sp)
 2002800:	94800094 	ori	r18,r18,2
 2002804:	9802b41e 	bne	r19,zero,20032d8 <___vfprintf_internal_r+0xe44>
 2002808:	01408074 	movhi	r5,513
 200280c:	29487004 	addi	r5,r5,8640
 2002810:	d9403915 	stw	r5,228(sp)
 2002814:	04401e04 	movi	r17,120
 2002818:	d8802a17 	ldw	r2,168(sp)
 200281c:	0039883a 	mov	fp,zero
 2002820:	1001fa26 	beq	r2,zero,200300c <___vfprintf_internal_r+0xb78>
 2002824:	0027883a 	mov	r19,zero
 2002828:	002d883a 	mov	r22,zero
 200282c:	00021906 	br	2003094 <___vfprintf_internal_r+0xc00>
 2002830:	d9002d17 	ldw	r4,180(sp)
 2002834:	b80b883a 	mov	r5,r23
 2002838:	20048480 	call	2004848 <__swsetup_r>
 200283c:	1005dc1e 	bne	r2,zero,2003fb0 <___vfprintf_internal_r+0x1b1c>
 2002840:	b880030b 	ldhu	r2,12(r23)
 2002844:	00c00284 	movi	r3,10
 2002848:	1080068c 	andi	r2,r2,26
 200284c:	10ff3a1e 	bne	r2,r3,2002538 <__alt_data_end+0xff002538>
 2002850:	b880038f 	ldh	r2,14(r23)
 2002854:	103f3816 	blt	r2,zero,2002538 <__alt_data_end+0xff002538>
 2002858:	d9c02e17 	ldw	r7,184(sp)
 200285c:	d9002d17 	ldw	r4,180(sp)
 2002860:	a80d883a 	mov	r6,r21
 2002864:	b80b883a 	mov	r5,r23
 2002868:	200478c0 	call	200478c <__sbprintf>
 200286c:	00001106 	br	20028b4 <___vfprintf_internal_r+0x420>
 2002870:	d9002d17 	ldw	r4,180(sp)
 2002874:	d9801e04 	addi	r6,sp,120
 2002878:	b80b883a 	mov	r5,r23
 200287c:	2009c740 	call	2009c74 <__sprint_r>
 2002880:	1000081e 	bne	r2,zero,20028a4 <___vfprintf_internal_r+0x410>
 2002884:	da000404 	addi	r8,sp,16
 2002888:	003f5106 	br	20025d0 <__alt_data_end+0xff0025d0>
 200288c:	d8802017 	ldw	r2,128(sp)
 2002890:	10000426 	beq	r2,zero,20028a4 <___vfprintf_internal_r+0x410>
 2002894:	d9002d17 	ldw	r4,180(sp)
 2002898:	d9801e04 	addi	r6,sp,120
 200289c:	b80b883a 	mov	r5,r23
 20028a0:	2009c740 	call	2009c74 <__sprint_r>
 20028a4:	b880030b 	ldhu	r2,12(r23)
 20028a8:	1080100c 	andi	r2,r2,64
 20028ac:	1005c01e 	bne	r2,zero,2003fb0 <___vfprintf_internal_r+0x1b1c>
 20028b0:	d8802f17 	ldw	r2,188(sp)
 20028b4:	dfc04717 	ldw	ra,284(sp)
 20028b8:	df004617 	ldw	fp,280(sp)
 20028bc:	ddc04517 	ldw	r23,276(sp)
 20028c0:	dd804417 	ldw	r22,272(sp)
 20028c4:	dd404317 	ldw	r21,268(sp)
 20028c8:	dd004217 	ldw	r20,264(sp)
 20028cc:	dcc04117 	ldw	r19,260(sp)
 20028d0:	dc804017 	ldw	r18,256(sp)
 20028d4:	dc403f17 	ldw	r17,252(sp)
 20028d8:	dc003e17 	ldw	r16,248(sp)
 20028dc:	dec04804 	addi	sp,sp,288
 20028e0:	f800283a 	ret
 20028e4:	d9002d17 	ldw	r4,180(sp)
 20028e8:	20068540 	call	2006854 <__sinit>
 20028ec:	003f0206 	br	20024f8 <__alt_data_end+0xff0024f8>
 20028f0:	d9002e17 	ldw	r4,184(sp)
 20028f4:	d9402e17 	ldw	r5,184(sp)
 20028f8:	21000017 	ldw	r4,0(r4)
 20028fc:	28800104 	addi	r2,r5,4
 2002900:	d9003115 	stw	r4,196(sp)
 2002904:	203fa716 	blt	r4,zero,20027a4 <__alt_data_end+0xff0027a4>
 2002908:	d8802e15 	stw	r2,184(sp)
 200290c:	ac400007 	ldb	r17,0(r21)
 2002910:	003f4206 	br	200261c <__alt_data_end+0xff00261c>
 2002914:	ac400007 	ldb	r17,0(r21)
 2002918:	01000a84 	movi	r4,42
 200291c:	a8c00044 	addi	r3,r21,1
 2002920:	89075826 	beq	r17,r4,2004684 <___vfprintf_internal_r+0x21f0>
 2002924:	8cbff404 	addi	r18,r17,-48
 2002928:	b486ae36 	bltu	r22,r18,20043e4 <___vfprintf_internal_r+0x1f50>
 200292c:	0009883a 	mov	r4,zero
 2002930:	1823883a 	mov	r17,r3
 2002934:	01400284 	movi	r5,10
 2002938:	200c9300 	call	200c930 <__mulsi3>
 200293c:	88c00007 	ldb	r3,0(r17)
 2002940:	1489883a 	add	r4,r2,r18
 2002944:	8d400044 	addi	r21,r17,1
 2002948:	1cbff404 	addi	r18,r3,-48
 200294c:	a823883a 	mov	r17,r21
 2002950:	b4bff82e 	bgeu	r22,r18,2002934 <__alt_data_end+0xff002934>
 2002954:	1823883a 	mov	r17,r3
 2002958:	2005f616 	blt	r4,zero,2004134 <___vfprintf_internal_r+0x1ca0>
 200295c:	d9002a15 	stw	r4,168(sp)
 2002960:	003f2f06 	br	2002620 <__alt_data_end+0xff002620>
 2002964:	84002014 	ori	r16,r16,128
 2002968:	ac400007 	ldb	r17,0(r21)
 200296c:	003f2b06 	br	200261c <__alt_data_end+0xff00261c>
 2002970:	8cbff404 	addi	r18,r17,-48
 2002974:	d8003115 	stw	zero,196(sp)
 2002978:	0009883a 	mov	r4,zero
 200297c:	a823883a 	mov	r17,r21
 2002980:	01400284 	movi	r5,10
 2002984:	200c9300 	call	200c930 <__mulsi3>
 2002988:	88c00007 	ldb	r3,0(r17)
 200298c:	9089883a 	add	r4,r18,r2
 2002990:	ad400044 	addi	r21,r21,1
 2002994:	1cbff404 	addi	r18,r3,-48
 2002998:	a823883a 	mov	r17,r21
 200299c:	b4bff82e 	bgeu	r22,r18,2002980 <__alt_data_end+0xff002980>
 20029a0:	1823883a 	mov	r17,r3
 20029a4:	d9003115 	stw	r4,196(sp)
 20029a8:	003f1d06 	br	2002620 <__alt_data_end+0xff002620>
 20029ac:	8025883a 	mov	r18,r16
 20029b0:	dc002903 	ldbu	r16,164(sp)
 20029b4:	e011883a 	mov	r8,fp
 20029b8:	84003fcc 	andi	r16,r16,255
 20029bc:	8007531e 	bne	r16,zero,200470c <___vfprintf_internal_r+0x2278>
 20029c0:	94800414 	ori	r18,r18,16
 20029c4:	9080080c 	andi	r2,r18,32
 20029c8:	1003a326 	beq	r2,zero,2003858 <___vfprintf_internal_r+0x13c4>
 20029cc:	d9002e17 	ldw	r4,184(sp)
 20029d0:	20800117 	ldw	r2,4(r4)
 20029d4:	24c00017 	ldw	r19,0(r4)
 20029d8:	21000204 	addi	r4,r4,8
 20029dc:	d9002e15 	stw	r4,184(sp)
 20029e0:	102d883a 	mov	r22,r2
 20029e4:	10047316 	blt	r2,zero,2003bb4 <___vfprintf_internal_r+0x1720>
 20029e8:	d9002a17 	ldw	r4,168(sp)
 20029ec:	df002783 	ldbu	fp,158(sp)
 20029f0:	2003e416 	blt	r4,zero,2003984 <___vfprintf_internal_r+0x14f0>
 20029f4:	00ffdfc4 	movi	r3,-129
 20029f8:	9d84b03a 	or	r2,r19,r22
 20029fc:	90e4703a 	and	r18,r18,r3
 2002a00:	10018026 	beq	r2,zero,2003004 <___vfprintf_internal_r+0xb70>
 2002a04:	b003ab26 	beq	r22,zero,20038b4 <___vfprintf_internal_r+0x1420>
 2002a08:	dc402915 	stw	r17,164(sp)
 2002a0c:	dc001e04 	addi	r16,sp,120
 2002a10:	b023883a 	mov	r17,r22
 2002a14:	402d883a 	mov	r22,r8
 2002a18:	9809883a 	mov	r4,r19
 2002a1c:	880b883a 	mov	r5,r17
 2002a20:	01800284 	movi	r6,10
 2002a24:	000f883a 	mov	r7,zero
 2002a28:	200c1b80 	call	200c1b8 <__umoddi3>
 2002a2c:	10800c04 	addi	r2,r2,48
 2002a30:	843fffc4 	addi	r16,r16,-1
 2002a34:	9809883a 	mov	r4,r19
 2002a38:	880b883a 	mov	r5,r17
 2002a3c:	80800005 	stb	r2,0(r16)
 2002a40:	01800284 	movi	r6,10
 2002a44:	000f883a 	mov	r7,zero
 2002a48:	200bbbc0 	call	200bbbc <__udivdi3>
 2002a4c:	1027883a 	mov	r19,r2
 2002a50:	10c4b03a 	or	r2,r2,r3
 2002a54:	1823883a 	mov	r17,r3
 2002a58:	103fef1e 	bne	r2,zero,2002a18 <__alt_data_end+0xff002a18>
 2002a5c:	d8c02817 	ldw	r3,160(sp)
 2002a60:	dc402917 	ldw	r17,164(sp)
 2002a64:	b011883a 	mov	r8,r22
 2002a68:	1c07c83a 	sub	r3,r3,r16
 2002a6c:	d8c02b15 	stw	r3,172(sp)
 2002a70:	00005f06 	br	2002bf0 <___vfprintf_internal_r+0x75c>
 2002a74:	8025883a 	mov	r18,r16
 2002a78:	dc002903 	ldbu	r16,164(sp)
 2002a7c:	e011883a 	mov	r8,fp
 2002a80:	84003fcc 	andi	r16,r16,255
 2002a84:	80071e1e 	bne	r16,zero,2004700 <___vfprintf_internal_r+0x226c>
 2002a88:	9080020c 	andi	r2,r18,8
 2002a8c:	1004af26 	beq	r2,zero,2003d4c <___vfprintf_internal_r+0x18b8>
 2002a90:	d9002e17 	ldw	r4,184(sp)
 2002a94:	d9402e17 	ldw	r5,184(sp)
 2002a98:	d8802e17 	ldw	r2,184(sp)
 2002a9c:	21000017 	ldw	r4,0(r4)
 2002aa0:	29400117 	ldw	r5,4(r5)
 2002aa4:	10800204 	addi	r2,r2,8
 2002aa8:	d9003615 	stw	r4,216(sp)
 2002aac:	d9403815 	stw	r5,224(sp)
 2002ab0:	d8802e15 	stw	r2,184(sp)
 2002ab4:	d9003617 	ldw	r4,216(sp)
 2002ab8:	d9403817 	ldw	r5,224(sp)
 2002abc:	da003d15 	stw	r8,244(sp)
 2002ac0:	04000044 	movi	r16,1
 2002ac4:	20098980 	call	2009898 <__fpclassifyd>
 2002ac8:	da003d17 	ldw	r8,244(sp)
 2002acc:	1404441e 	bne	r2,r16,2003be0 <___vfprintf_internal_r+0x174c>
 2002ad0:	d9003617 	ldw	r4,216(sp)
 2002ad4:	d9403817 	ldw	r5,224(sp)
 2002ad8:	000d883a 	mov	r6,zero
 2002adc:	000f883a 	mov	r7,zero
 2002ae0:	200dd380 	call	200dd38 <__ledf2>
 2002ae4:	da003d17 	ldw	r8,244(sp)
 2002ae8:	1005e316 	blt	r2,zero,2004278 <___vfprintf_internal_r+0x1de4>
 2002aec:	df002783 	ldbu	fp,158(sp)
 2002af0:	008011c4 	movi	r2,71
 2002af4:	1445580e 	bge	r2,r17,2004058 <___vfprintf_internal_r+0x1bc4>
 2002af8:	04008074 	movhi	r16,513
 2002afc:	84086804 	addi	r16,r16,8608
 2002b00:	00c000c4 	movi	r3,3
 2002b04:	00bfdfc4 	movi	r2,-129
 2002b08:	d8c02915 	stw	r3,164(sp)
 2002b0c:	90a4703a 	and	r18,r18,r2
 2002b10:	d8c02b15 	stw	r3,172(sp)
 2002b14:	d8002a15 	stw	zero,168(sp)
 2002b18:	d8003215 	stw	zero,200(sp)
 2002b1c:	00003a06 	br	2002c08 <___vfprintf_internal_r+0x774>
 2002b20:	84000214 	ori	r16,r16,8
 2002b24:	ac400007 	ldb	r17,0(r21)
 2002b28:	003ebc06 	br	200261c <__alt_data_end+0xff00261c>
 2002b2c:	8025883a 	mov	r18,r16
 2002b30:	dc002903 	ldbu	r16,164(sp)
 2002b34:	e011883a 	mov	r8,fp
 2002b38:	84003fcc 	andi	r16,r16,255
 2002b3c:	8007001e 	bne	r16,zero,2004740 <___vfprintf_internal_r+0x22ac>
 2002b40:	94800414 	ori	r18,r18,16
 2002b44:	9080080c 	andi	r2,r18,32
 2002b48:	1002fa26 	beq	r2,zero,2003734 <___vfprintf_internal_r+0x12a0>
 2002b4c:	d9002e17 	ldw	r4,184(sp)
 2002b50:	d9402a17 	ldw	r5,168(sp)
 2002b54:	d8002785 	stb	zero,158(sp)
 2002b58:	20800204 	addi	r2,r4,8
 2002b5c:	24c00017 	ldw	r19,0(r4)
 2002b60:	25800117 	ldw	r22,4(r4)
 2002b64:	2804b116 	blt	r5,zero,2003e2c <___vfprintf_internal_r+0x1998>
 2002b68:	013fdfc4 	movi	r4,-129
 2002b6c:	9d86b03a 	or	r3,r19,r22
 2002b70:	d8802e15 	stw	r2,184(sp)
 2002b74:	9124703a 	and	r18,r18,r4
 2002b78:	1802fb1e 	bne	r3,zero,2003768 <___vfprintf_internal_r+0x12d4>
 2002b7c:	d8c02a17 	ldw	r3,168(sp)
 2002b80:	0039883a 	mov	fp,zero
 2002b84:	1805e526 	beq	r3,zero,200431c <___vfprintf_internal_r+0x1e88>
 2002b88:	0027883a 	mov	r19,zero
 2002b8c:	002d883a 	mov	r22,zero
 2002b90:	dc001e04 	addi	r16,sp,120
 2002b94:	9806d0fa 	srli	r3,r19,3
 2002b98:	b008977a 	slli	r4,r22,29
 2002b9c:	b02cd0fa 	srli	r22,r22,3
 2002ba0:	9cc001cc 	andi	r19,r19,7
 2002ba4:	98800c04 	addi	r2,r19,48
 2002ba8:	843fffc4 	addi	r16,r16,-1
 2002bac:	20e6b03a 	or	r19,r4,r3
 2002bb0:	80800005 	stb	r2,0(r16)
 2002bb4:	9d86b03a 	or	r3,r19,r22
 2002bb8:	183ff61e 	bne	r3,zero,2002b94 <__alt_data_end+0xff002b94>
 2002bbc:	90c0004c 	andi	r3,r18,1
 2002bc0:	18014126 	beq	r3,zero,20030c8 <___vfprintf_internal_r+0xc34>
 2002bc4:	10803fcc 	andi	r2,r2,255
 2002bc8:	1080201c 	xori	r2,r2,128
 2002bcc:	10bfe004 	addi	r2,r2,-128
 2002bd0:	00c00c04 	movi	r3,48
 2002bd4:	10c13c26 	beq	r2,r3,20030c8 <___vfprintf_internal_r+0xc34>
 2002bd8:	80ffffc5 	stb	r3,-1(r16)
 2002bdc:	d8c02817 	ldw	r3,160(sp)
 2002be0:	80bfffc4 	addi	r2,r16,-1
 2002be4:	1021883a 	mov	r16,r2
 2002be8:	1887c83a 	sub	r3,r3,r2
 2002bec:	d8c02b15 	stw	r3,172(sp)
 2002bf0:	d8802b17 	ldw	r2,172(sp)
 2002bf4:	d9002a17 	ldw	r4,168(sp)
 2002bf8:	1100010e 	bge	r2,r4,2002c00 <___vfprintf_internal_r+0x76c>
 2002bfc:	2005883a 	mov	r2,r4
 2002c00:	d8802915 	stw	r2,164(sp)
 2002c04:	d8003215 	stw	zero,200(sp)
 2002c08:	e7003fcc 	andi	fp,fp,255
 2002c0c:	e700201c 	xori	fp,fp,128
 2002c10:	e73fe004 	addi	fp,fp,-128
 2002c14:	e0000326 	beq	fp,zero,2002c24 <___vfprintf_internal_r+0x790>
 2002c18:	d8c02917 	ldw	r3,164(sp)
 2002c1c:	18c00044 	addi	r3,r3,1
 2002c20:	d8c02915 	stw	r3,164(sp)
 2002c24:	90c0008c 	andi	r3,r18,2
 2002c28:	d8c02c15 	stw	r3,176(sp)
 2002c2c:	18000326 	beq	r3,zero,2002c3c <___vfprintf_internal_r+0x7a8>
 2002c30:	d8c02917 	ldw	r3,164(sp)
 2002c34:	18c00084 	addi	r3,r3,2
 2002c38:	d8c02915 	stw	r3,164(sp)
 2002c3c:	90c0210c 	andi	r3,r18,132
 2002c40:	d8c03015 	stw	r3,192(sp)
 2002c44:	1801c51e 	bne	r3,zero,200335c <___vfprintf_internal_r+0xec8>
 2002c48:	d9003117 	ldw	r4,196(sp)
 2002c4c:	d8c02917 	ldw	r3,164(sp)
 2002c50:	20e7c83a 	sub	r19,r4,r3
 2002c54:	04c1c10e 	bge	zero,r19,200335c <___vfprintf_internal_r+0xec8>
 2002c58:	02400404 	movi	r9,16
 2002c5c:	d8c02017 	ldw	r3,128(sp)
 2002c60:	d8801f17 	ldw	r2,124(sp)
 2002c64:	4cc52f0e 	bge	r9,r19,2004124 <___vfprintf_internal_r+0x1c90>
 2002c68:	01408074 	movhi	r5,513
 2002c6c:	29487b84 	addi	r5,r5,8686
 2002c70:	dc403b15 	stw	r17,236(sp)
 2002c74:	d9403515 	stw	r5,212(sp)
 2002c78:	9823883a 	mov	r17,r19
 2002c7c:	482d883a 	mov	r22,r9
 2002c80:	9027883a 	mov	r19,r18
 2002c84:	070001c4 	movi	fp,7
 2002c88:	8025883a 	mov	r18,r16
 2002c8c:	dc002d17 	ldw	r16,180(sp)
 2002c90:	00000306 	br	2002ca0 <___vfprintf_internal_r+0x80c>
 2002c94:	8c7ffc04 	addi	r17,r17,-16
 2002c98:	42000204 	addi	r8,r8,8
 2002c9c:	b440130e 	bge	r22,r17,2002cec <___vfprintf_internal_r+0x858>
 2002ca0:	01008074 	movhi	r4,513
 2002ca4:	18c00404 	addi	r3,r3,16
 2002ca8:	10800044 	addi	r2,r2,1
 2002cac:	21087b84 	addi	r4,r4,8686
 2002cb0:	41000015 	stw	r4,0(r8)
 2002cb4:	45800115 	stw	r22,4(r8)
 2002cb8:	d8c02015 	stw	r3,128(sp)
 2002cbc:	d8801f15 	stw	r2,124(sp)
 2002cc0:	e0bff40e 	bge	fp,r2,2002c94 <__alt_data_end+0xff002c94>
 2002cc4:	d9801e04 	addi	r6,sp,120
 2002cc8:	b80b883a 	mov	r5,r23
 2002ccc:	8009883a 	mov	r4,r16
 2002cd0:	2009c740 	call	2009c74 <__sprint_r>
 2002cd4:	103ef31e 	bne	r2,zero,20028a4 <__alt_data_end+0xff0028a4>
 2002cd8:	8c7ffc04 	addi	r17,r17,-16
 2002cdc:	d8c02017 	ldw	r3,128(sp)
 2002ce0:	d8801f17 	ldw	r2,124(sp)
 2002ce4:	da000404 	addi	r8,sp,16
 2002ce8:	b47fed16 	blt	r22,r17,2002ca0 <__alt_data_end+0xff002ca0>
 2002cec:	9021883a 	mov	r16,r18
 2002cf0:	9825883a 	mov	r18,r19
 2002cf4:	8827883a 	mov	r19,r17
 2002cf8:	dc403b17 	ldw	r17,236(sp)
 2002cfc:	d9403517 	ldw	r5,212(sp)
 2002d00:	98c7883a 	add	r3,r19,r3
 2002d04:	10800044 	addi	r2,r2,1
 2002d08:	41400015 	stw	r5,0(r8)
 2002d0c:	44c00115 	stw	r19,4(r8)
 2002d10:	d8c02015 	stw	r3,128(sp)
 2002d14:	d8801f15 	stw	r2,124(sp)
 2002d18:	010001c4 	movi	r4,7
 2002d1c:	2082c516 	blt	r4,r2,2003834 <___vfprintf_internal_r+0x13a0>
 2002d20:	df002787 	ldb	fp,158(sp)
 2002d24:	42000204 	addi	r8,r8,8
 2002d28:	e0000c26 	beq	fp,zero,2002d5c <___vfprintf_internal_r+0x8c8>
 2002d2c:	d8801f17 	ldw	r2,124(sp)
 2002d30:	d9002784 	addi	r4,sp,158
 2002d34:	18c00044 	addi	r3,r3,1
 2002d38:	10800044 	addi	r2,r2,1
 2002d3c:	41000015 	stw	r4,0(r8)
 2002d40:	01000044 	movi	r4,1
 2002d44:	41000115 	stw	r4,4(r8)
 2002d48:	d8c02015 	stw	r3,128(sp)
 2002d4c:	d8801f15 	stw	r2,124(sp)
 2002d50:	010001c4 	movi	r4,7
 2002d54:	20825e16 	blt	r4,r2,20036d0 <___vfprintf_internal_r+0x123c>
 2002d58:	42000204 	addi	r8,r8,8
 2002d5c:	d8802c17 	ldw	r2,176(sp)
 2002d60:	10000c26 	beq	r2,zero,2002d94 <___vfprintf_internal_r+0x900>
 2002d64:	d8801f17 	ldw	r2,124(sp)
 2002d68:	d9002704 	addi	r4,sp,156
 2002d6c:	18c00084 	addi	r3,r3,2
 2002d70:	10800044 	addi	r2,r2,1
 2002d74:	41000015 	stw	r4,0(r8)
 2002d78:	01000084 	movi	r4,2
 2002d7c:	41000115 	stw	r4,4(r8)
 2002d80:	d8c02015 	stw	r3,128(sp)
 2002d84:	d8801f15 	stw	r2,124(sp)
 2002d88:	010001c4 	movi	r4,7
 2002d8c:	20825816 	blt	r4,r2,20036f0 <___vfprintf_internal_r+0x125c>
 2002d90:	42000204 	addi	r8,r8,8
 2002d94:	d9003017 	ldw	r4,192(sp)
 2002d98:	00802004 	movi	r2,128
 2002d9c:	2081bb26 	beq	r4,r2,200348c <___vfprintf_internal_r+0xff8>
 2002da0:	d9402a17 	ldw	r5,168(sp)
 2002da4:	d8802b17 	ldw	r2,172(sp)
 2002da8:	28adc83a 	sub	r22,r5,r2
 2002dac:	0580310e 	bge	zero,r22,2002e74 <___vfprintf_internal_r+0x9e0>
 2002db0:	07000404 	movi	fp,16
 2002db4:	d8801f17 	ldw	r2,124(sp)
 2002db8:	e584360e 	bge	fp,r22,2003e94 <___vfprintf_internal_r+0x1a00>
 2002dbc:	01408074 	movhi	r5,513
 2002dc0:	29487784 	addi	r5,r5,8670
 2002dc4:	dc402a15 	stw	r17,168(sp)
 2002dc8:	d9402c15 	stw	r5,176(sp)
 2002dcc:	b023883a 	mov	r17,r22
 2002dd0:	04c001c4 	movi	r19,7
 2002dd4:	a82d883a 	mov	r22,r21
 2002dd8:	902b883a 	mov	r21,r18
 2002ddc:	8025883a 	mov	r18,r16
 2002de0:	dc002d17 	ldw	r16,180(sp)
 2002de4:	00000306 	br	2002df4 <___vfprintf_internal_r+0x960>
 2002de8:	8c7ffc04 	addi	r17,r17,-16
 2002dec:	42000204 	addi	r8,r8,8
 2002df0:	e440110e 	bge	fp,r17,2002e38 <___vfprintf_internal_r+0x9a4>
 2002df4:	18c00404 	addi	r3,r3,16
 2002df8:	10800044 	addi	r2,r2,1
 2002dfc:	45000015 	stw	r20,0(r8)
 2002e00:	47000115 	stw	fp,4(r8)
 2002e04:	d8c02015 	stw	r3,128(sp)
 2002e08:	d8801f15 	stw	r2,124(sp)
 2002e0c:	98bff60e 	bge	r19,r2,2002de8 <__alt_data_end+0xff002de8>
 2002e10:	d9801e04 	addi	r6,sp,120
 2002e14:	b80b883a 	mov	r5,r23
 2002e18:	8009883a 	mov	r4,r16
 2002e1c:	2009c740 	call	2009c74 <__sprint_r>
 2002e20:	103ea01e 	bne	r2,zero,20028a4 <__alt_data_end+0xff0028a4>
 2002e24:	8c7ffc04 	addi	r17,r17,-16
 2002e28:	d8c02017 	ldw	r3,128(sp)
 2002e2c:	d8801f17 	ldw	r2,124(sp)
 2002e30:	da000404 	addi	r8,sp,16
 2002e34:	e47fef16 	blt	fp,r17,2002df4 <__alt_data_end+0xff002df4>
 2002e38:	9021883a 	mov	r16,r18
 2002e3c:	a825883a 	mov	r18,r21
 2002e40:	b02b883a 	mov	r21,r22
 2002e44:	882d883a 	mov	r22,r17
 2002e48:	dc402a17 	ldw	r17,168(sp)
 2002e4c:	d9002c17 	ldw	r4,176(sp)
 2002e50:	1d87883a 	add	r3,r3,r22
 2002e54:	10800044 	addi	r2,r2,1
 2002e58:	41000015 	stw	r4,0(r8)
 2002e5c:	45800115 	stw	r22,4(r8)
 2002e60:	d8c02015 	stw	r3,128(sp)
 2002e64:	d8801f15 	stw	r2,124(sp)
 2002e68:	010001c4 	movi	r4,7
 2002e6c:	20821016 	blt	r4,r2,20036b0 <___vfprintf_internal_r+0x121c>
 2002e70:	42000204 	addi	r8,r8,8
 2002e74:	9080400c 	andi	r2,r18,256
 2002e78:	10013a1e 	bne	r2,zero,2003364 <___vfprintf_internal_r+0xed0>
 2002e7c:	d9402b17 	ldw	r5,172(sp)
 2002e80:	d8801f17 	ldw	r2,124(sp)
 2002e84:	44000015 	stw	r16,0(r8)
 2002e88:	1947883a 	add	r3,r3,r5
 2002e8c:	10800044 	addi	r2,r2,1
 2002e90:	41400115 	stw	r5,4(r8)
 2002e94:	d8c02015 	stw	r3,128(sp)
 2002e98:	d8801f15 	stw	r2,124(sp)
 2002e9c:	010001c4 	movi	r4,7
 2002ea0:	2081f516 	blt	r4,r2,2003678 <___vfprintf_internal_r+0x11e4>
 2002ea4:	42000204 	addi	r8,r8,8
 2002ea8:	9480010c 	andi	r18,r18,4
 2002eac:	90003226 	beq	r18,zero,2002f78 <___vfprintf_internal_r+0xae4>
 2002eb0:	d9403117 	ldw	r5,196(sp)
 2002eb4:	d8802917 	ldw	r2,164(sp)
 2002eb8:	28a1c83a 	sub	r16,r5,r2
 2002ebc:	04002e0e 	bge	zero,r16,2002f78 <___vfprintf_internal_r+0xae4>
 2002ec0:	04400404 	movi	r17,16
 2002ec4:	d8801f17 	ldw	r2,124(sp)
 2002ec8:	8c04c40e 	bge	r17,r16,20041dc <___vfprintf_internal_r+0x1d48>
 2002ecc:	01408074 	movhi	r5,513
 2002ed0:	29487b84 	addi	r5,r5,8686
 2002ed4:	d9403515 	stw	r5,212(sp)
 2002ed8:	048001c4 	movi	r18,7
 2002edc:	dcc02d17 	ldw	r19,180(sp)
 2002ee0:	00000306 	br	2002ef0 <___vfprintf_internal_r+0xa5c>
 2002ee4:	843ffc04 	addi	r16,r16,-16
 2002ee8:	42000204 	addi	r8,r8,8
 2002eec:	8c00130e 	bge	r17,r16,2002f3c <___vfprintf_internal_r+0xaa8>
 2002ef0:	01008074 	movhi	r4,513
 2002ef4:	18c00404 	addi	r3,r3,16
 2002ef8:	10800044 	addi	r2,r2,1
 2002efc:	21087b84 	addi	r4,r4,8686
 2002f00:	41000015 	stw	r4,0(r8)
 2002f04:	44400115 	stw	r17,4(r8)
 2002f08:	d8c02015 	stw	r3,128(sp)
 2002f0c:	d8801f15 	stw	r2,124(sp)
 2002f10:	90bff40e 	bge	r18,r2,2002ee4 <__alt_data_end+0xff002ee4>
 2002f14:	d9801e04 	addi	r6,sp,120
 2002f18:	b80b883a 	mov	r5,r23
 2002f1c:	9809883a 	mov	r4,r19
 2002f20:	2009c740 	call	2009c74 <__sprint_r>
 2002f24:	103e5f1e 	bne	r2,zero,20028a4 <__alt_data_end+0xff0028a4>
 2002f28:	843ffc04 	addi	r16,r16,-16
 2002f2c:	d8c02017 	ldw	r3,128(sp)
 2002f30:	d8801f17 	ldw	r2,124(sp)
 2002f34:	da000404 	addi	r8,sp,16
 2002f38:	8c3fed16 	blt	r17,r16,2002ef0 <__alt_data_end+0xff002ef0>
 2002f3c:	d9403517 	ldw	r5,212(sp)
 2002f40:	1c07883a 	add	r3,r3,r16
 2002f44:	10800044 	addi	r2,r2,1
 2002f48:	41400015 	stw	r5,0(r8)
 2002f4c:	44000115 	stw	r16,4(r8)
 2002f50:	d8c02015 	stw	r3,128(sp)
 2002f54:	d8801f15 	stw	r2,124(sp)
 2002f58:	010001c4 	movi	r4,7
 2002f5c:	2080060e 	bge	r4,r2,2002f78 <___vfprintf_internal_r+0xae4>
 2002f60:	d9002d17 	ldw	r4,180(sp)
 2002f64:	d9801e04 	addi	r6,sp,120
 2002f68:	b80b883a 	mov	r5,r23
 2002f6c:	2009c740 	call	2009c74 <__sprint_r>
 2002f70:	103e4c1e 	bne	r2,zero,20028a4 <__alt_data_end+0xff0028a4>
 2002f74:	d8c02017 	ldw	r3,128(sp)
 2002f78:	d8803117 	ldw	r2,196(sp)
 2002f7c:	d9002917 	ldw	r4,164(sp)
 2002f80:	1100010e 	bge	r2,r4,2002f88 <___vfprintf_internal_r+0xaf4>
 2002f84:	2005883a 	mov	r2,r4
 2002f88:	d9402f17 	ldw	r5,188(sp)
 2002f8c:	288b883a 	add	r5,r5,r2
 2002f90:	d9402f15 	stw	r5,188(sp)
 2002f94:	1801c01e 	bne	r3,zero,2003698 <___vfprintf_internal_r+0x1204>
 2002f98:	a8800007 	ldb	r2,0(r21)
 2002f9c:	d8001f15 	stw	zero,124(sp)
 2002fa0:	da000404 	addi	r8,sp,16
 2002fa4:	103d751e 	bne	r2,zero,200257c <__alt_data_end+0xff00257c>
 2002fa8:	a823883a 	mov	r17,r21
 2002fac:	003d8b06 	br	20025dc <__alt_data_end+0xff0025dc>
 2002fb0:	8025883a 	mov	r18,r16
 2002fb4:	dc002903 	ldbu	r16,164(sp)
 2002fb8:	e011883a 	mov	r8,fp
 2002fbc:	84003fcc 	andi	r16,r16,255
 2002fc0:	8005e51e 	bne	r16,zero,2004758 <___vfprintf_internal_r+0x22c4>
 2002fc4:	94800414 	ori	r18,r18,16
 2002fc8:	9080080c 	andi	r2,r18,32
 2002fcc:	10022b26 	beq	r2,zero,200387c <___vfprintf_internal_r+0x13e8>
 2002fd0:	d9002e17 	ldw	r4,184(sp)
 2002fd4:	d9402a17 	ldw	r5,168(sp)
 2002fd8:	d8002785 	stb	zero,158(sp)
 2002fdc:	20c00204 	addi	r3,r4,8
 2002fe0:	24c00017 	ldw	r19,0(r4)
 2002fe4:	25800117 	ldw	r22,4(r4)
 2002fe8:	28042e16 	blt	r5,zero,20040a4 <___vfprintf_internal_r+0x1c10>
 2002fec:	013fdfc4 	movi	r4,-129
 2002ff0:	9d84b03a 	or	r2,r19,r22
 2002ff4:	d8c02e15 	stw	r3,184(sp)
 2002ff8:	9124703a 	and	r18,r18,r4
 2002ffc:	0039883a 	mov	fp,zero
 2003000:	103e801e 	bne	r2,zero,2002a04 <__alt_data_end+0xff002a04>
 2003004:	d9002a17 	ldw	r4,168(sp)
 2003008:	2002e01e 	bne	r4,zero,2003b8c <___vfprintf_internal_r+0x16f8>
 200300c:	d8002a15 	stw	zero,168(sp)
 2003010:	d8002b15 	stw	zero,172(sp)
 2003014:	dc001e04 	addi	r16,sp,120
 2003018:	003ef506 	br	2002bf0 <__alt_data_end+0xff002bf0>
 200301c:	8025883a 	mov	r18,r16
 2003020:	dc002903 	ldbu	r16,164(sp)
 2003024:	e011883a 	mov	r8,fp
 2003028:	84003fcc 	andi	r16,r16,255
 200302c:	8005ba1e 	bne	r16,zero,2004718 <___vfprintf_internal_r+0x2284>
 2003030:	01008074 	movhi	r4,513
 2003034:	21086b04 	addi	r4,r4,8620
 2003038:	d9003915 	stw	r4,228(sp)
 200303c:	9080080c 	andi	r2,r18,32
 2003040:	10006126 	beq	r2,zero,20031c8 <___vfprintf_internal_r+0xd34>
 2003044:	d9402e17 	ldw	r5,184(sp)
 2003048:	2cc00017 	ldw	r19,0(r5)
 200304c:	2d800117 	ldw	r22,4(r5)
 2003050:	29400204 	addi	r5,r5,8
 2003054:	d9402e15 	stw	r5,184(sp)
 2003058:	9080004c 	andi	r2,r18,1
 200305c:	1001ac26 	beq	r2,zero,2003710 <___vfprintf_internal_r+0x127c>
 2003060:	9d84b03a 	or	r2,r19,r22
 2003064:	10038526 	beq	r2,zero,2003e7c <___vfprintf_internal_r+0x19e8>
 2003068:	d8c02a17 	ldw	r3,168(sp)
 200306c:	00800c04 	movi	r2,48
 2003070:	d8802705 	stb	r2,156(sp)
 2003074:	dc402745 	stb	r17,157(sp)
 2003078:	d8002785 	stb	zero,158(sp)
 200307c:	90800094 	ori	r2,r18,2
 2003080:	18047916 	blt	r3,zero,2004268 <___vfprintf_internal_r+0x1dd4>
 2003084:	00bfdfc4 	movi	r2,-129
 2003088:	90a4703a 	and	r18,r18,r2
 200308c:	94800094 	ori	r18,r18,2
 2003090:	0039883a 	mov	fp,zero
 2003094:	d9003917 	ldw	r4,228(sp)
 2003098:	dc001e04 	addi	r16,sp,120
 200309c:	988003cc 	andi	r2,r19,15
 20030a0:	b006973a 	slli	r3,r22,28
 20030a4:	2085883a 	add	r2,r4,r2
 20030a8:	9826d13a 	srli	r19,r19,4
 20030ac:	10800003 	ldbu	r2,0(r2)
 20030b0:	b02cd13a 	srli	r22,r22,4
 20030b4:	843fffc4 	addi	r16,r16,-1
 20030b8:	1ce6b03a 	or	r19,r3,r19
 20030bc:	80800005 	stb	r2,0(r16)
 20030c0:	9d84b03a 	or	r2,r19,r22
 20030c4:	103ff51e 	bne	r2,zero,200309c <__alt_data_end+0xff00309c>
 20030c8:	d8c02817 	ldw	r3,160(sp)
 20030cc:	1c07c83a 	sub	r3,r3,r16
 20030d0:	d8c02b15 	stw	r3,172(sp)
 20030d4:	003ec606 	br	2002bf0 <__alt_data_end+0xff002bf0>
 20030d8:	8025883a 	mov	r18,r16
 20030dc:	dc002903 	ldbu	r16,164(sp)
 20030e0:	e011883a 	mov	r8,fp
 20030e4:	84003fcc 	andi	r16,r16,255
 20030e8:	803e9626 	beq	r16,zero,2002b44 <__alt_data_end+0xff002b44>
 20030ec:	d8c02b03 	ldbu	r3,172(sp)
 20030f0:	d8c02785 	stb	r3,158(sp)
 20030f4:	003e9306 	br	2002b44 <__alt_data_end+0xff002b44>
 20030f8:	00c00044 	movi	r3,1
 20030fc:	d8c02905 	stb	r3,164(sp)
 2003100:	00c00ac4 	movi	r3,43
 2003104:	d8c02b05 	stb	r3,172(sp)
 2003108:	ac400007 	ldb	r17,0(r21)
 200310c:	003d4306 	br	200261c <__alt_data_end+0xff00261c>
 2003110:	84000814 	ori	r16,r16,32
 2003114:	ac400007 	ldb	r17,0(r21)
 2003118:	003d4006 	br	200261c <__alt_data_end+0xff00261c>
 200311c:	d8802e17 	ldw	r2,184(sp)
 2003120:	8025883a 	mov	r18,r16
 2003124:	d8002785 	stb	zero,158(sp)
 2003128:	14000017 	ldw	r16,0(r2)
 200312c:	e011883a 	mov	r8,fp
 2003130:	14c00104 	addi	r19,r2,4
 2003134:	80042d26 	beq	r16,zero,20041ec <___vfprintf_internal_r+0x1d58>
 2003138:	d8c02a17 	ldw	r3,168(sp)
 200313c:	1803e416 	blt	r3,zero,20040d0 <___vfprintf_internal_r+0x1c3c>
 2003140:	180d883a 	mov	r6,r3
 2003144:	000b883a 	mov	r5,zero
 2003148:	8009883a 	mov	r4,r16
 200314c:	df003d15 	stw	fp,244(sp)
 2003150:	2007dcc0 	call	2007dcc <memchr>
 2003154:	da003d17 	ldw	r8,244(sp)
 2003158:	10046826 	beq	r2,zero,20042fc <___vfprintf_internal_r+0x1e68>
 200315c:	1405c83a 	sub	r2,r2,r16
 2003160:	d8802b15 	stw	r2,172(sp)
 2003164:	1003e016 	blt	r2,zero,20040e8 <___vfprintf_internal_r+0x1c54>
 2003168:	df002783 	ldbu	fp,158(sp)
 200316c:	d8802915 	stw	r2,164(sp)
 2003170:	dcc02e15 	stw	r19,184(sp)
 2003174:	d8002a15 	stw	zero,168(sp)
 2003178:	d8003215 	stw	zero,200(sp)
 200317c:	003ea206 	br	2002c08 <__alt_data_end+0xff002c08>
 2003180:	8025883a 	mov	r18,r16
 2003184:	dc002903 	ldbu	r16,164(sp)
 2003188:	e011883a 	mov	r8,fp
 200318c:	84003fcc 	andi	r16,r16,255
 2003190:	803f8d26 	beq	r16,zero,2002fc8 <__alt_data_end+0xff002fc8>
 2003194:	d8c02b03 	ldbu	r3,172(sp)
 2003198:	d8c02785 	stb	r3,158(sp)
 200319c:	003f8a06 	br	2002fc8 <__alt_data_end+0xff002fc8>
 20031a0:	8025883a 	mov	r18,r16
 20031a4:	dc002903 	ldbu	r16,164(sp)
 20031a8:	e011883a 	mov	r8,fp
 20031ac:	84003fcc 	andi	r16,r16,255
 20031b0:	8005661e 	bne	r16,zero,200474c <___vfprintf_internal_r+0x22b8>
 20031b4:	01008074 	movhi	r4,513
 20031b8:	21087004 	addi	r4,r4,8640
 20031bc:	d9003915 	stw	r4,228(sp)
 20031c0:	9080080c 	andi	r2,r18,32
 20031c4:	103f9f1e 	bne	r2,zero,2003044 <__alt_data_end+0xff003044>
 20031c8:	9080040c 	andi	r2,r18,16
 20031cc:	1002eb26 	beq	r2,zero,2003d7c <___vfprintf_internal_r+0x18e8>
 20031d0:	d8802e17 	ldw	r2,184(sp)
 20031d4:	002d883a 	mov	r22,zero
 20031d8:	14c00017 	ldw	r19,0(r2)
 20031dc:	10800104 	addi	r2,r2,4
 20031e0:	d8802e15 	stw	r2,184(sp)
 20031e4:	003f9c06 	br	2003058 <__alt_data_end+0xff003058>
 20031e8:	d8802b07 	ldb	r2,172(sp)
 20031ec:	1002e11e 	bne	r2,zero,2003d74 <___vfprintf_internal_r+0x18e0>
 20031f0:	00c00044 	movi	r3,1
 20031f4:	d8c02905 	stb	r3,164(sp)
 20031f8:	00c00804 	movi	r3,32
 20031fc:	d8c02b05 	stb	r3,172(sp)
 2003200:	ac400007 	ldb	r17,0(r21)
 2003204:	003d0506 	br	200261c <__alt_data_end+0xff00261c>
 2003208:	84000054 	ori	r16,r16,1
 200320c:	ac400007 	ldb	r17,0(r21)
 2003210:	003d0206 	br	200261c <__alt_data_end+0xff00261c>
 2003214:	8025883a 	mov	r18,r16
 2003218:	dc002903 	ldbu	r16,164(sp)
 200321c:	e011883a 	mov	r8,fp
 2003220:	84003fcc 	andi	r16,r16,255
 2003224:	803de726 	beq	r16,zero,20029c4 <__alt_data_end+0xff0029c4>
 2003228:	d8c02b03 	ldbu	r3,172(sp)
 200322c:	d8c02785 	stb	r3,158(sp)
 2003230:	003de406 	br	20029c4 <__alt_data_end+0xff0029c4>
 2003234:	84001014 	ori	r16,r16,64
 2003238:	ac400007 	ldb	r17,0(r21)
 200323c:	003cf706 	br	200261c <__alt_data_end+0xff00261c>
 2003240:	ac400007 	ldb	r17,0(r21)
 2003244:	00801b04 	movi	r2,108
 2003248:	88838f26 	beq	r17,r2,2004088 <___vfprintf_internal_r+0x1bf4>
 200324c:	84000414 	ori	r16,r16,16
 2003250:	003cf206 	br	200261c <__alt_data_end+0xff00261c>
 2003254:	8025883a 	mov	r18,r16
 2003258:	dc002903 	ldbu	r16,164(sp)
 200325c:	e011883a 	mov	r8,fp
 2003260:	84003fcc 	andi	r16,r16,255
 2003264:	80053f1e 	bne	r16,zero,2004764 <___vfprintf_internal_r+0x22d0>
 2003268:	9080080c 	andi	r2,r18,32
 200326c:	1002d226 	beq	r2,zero,2003db8 <___vfprintf_internal_r+0x1924>
 2003270:	d9002e17 	ldw	r4,184(sp)
 2003274:	d9402f17 	ldw	r5,188(sp)
 2003278:	20800017 	ldw	r2,0(r4)
 200327c:	2807d7fa 	srai	r3,r5,31
 2003280:	21000104 	addi	r4,r4,4
 2003284:	d9002e15 	stw	r4,184(sp)
 2003288:	11400015 	stw	r5,0(r2)
 200328c:	10c00115 	stw	r3,4(r2)
 2003290:	003cb806 	br	2002574 <__alt_data_end+0xff002574>
 2003294:	d8c02e17 	ldw	r3,184(sp)
 2003298:	d9002e17 	ldw	r4,184(sp)
 200329c:	8025883a 	mov	r18,r16
 20032a0:	18800017 	ldw	r2,0(r3)
 20032a4:	21000104 	addi	r4,r4,4
 20032a8:	00c00044 	movi	r3,1
 20032ac:	e011883a 	mov	r8,fp
 20032b0:	d8c02915 	stw	r3,164(sp)
 20032b4:	d8002785 	stb	zero,158(sp)
 20032b8:	d8801405 	stb	r2,80(sp)
 20032bc:	d9002e15 	stw	r4,184(sp)
 20032c0:	d8c02b15 	stw	r3,172(sp)
 20032c4:	d8002a15 	stw	zero,168(sp)
 20032c8:	d8003215 	stw	zero,200(sp)
 20032cc:	dc001404 	addi	r16,sp,80
 20032d0:	0039883a 	mov	fp,zero
 20032d4:	003e5306 	br	2002c24 <__alt_data_end+0xff002c24>
 20032d8:	01008074 	movhi	r4,513
 20032dc:	21087004 	addi	r4,r4,8640
 20032e0:	0039883a 	mov	fp,zero
 20032e4:	d9003915 	stw	r4,228(sp)
 20032e8:	04401e04 	movi	r17,120
 20032ec:	003f6906 	br	2003094 <__alt_data_end+0xff003094>
 20032f0:	8025883a 	mov	r18,r16
 20032f4:	dc002903 	ldbu	r16,164(sp)
 20032f8:	e011883a 	mov	r8,fp
 20032fc:	84003fcc 	andi	r16,r16,255
 2003300:	8005081e 	bne	r16,zero,2004724 <___vfprintf_internal_r+0x2290>
 2003304:	883d6126 	beq	r17,zero,200288c <__alt_data_end+0xff00288c>
 2003308:	00c00044 	movi	r3,1
 200330c:	d8c02915 	stw	r3,164(sp)
 2003310:	dc401405 	stb	r17,80(sp)
 2003314:	d8002785 	stb	zero,158(sp)
 2003318:	003fe906 	br	20032c0 <__alt_data_end+0xff0032c0>
 200331c:	01408074 	movhi	r5,513
 2003320:	29487004 	addi	r5,r5,8640
 2003324:	d9403915 	stw	r5,228(sp)
 2003328:	d8c02e15 	stw	r3,184(sp)
 200332c:	1025883a 	mov	r18,r2
 2003330:	04401e04 	movi	r17,120
 2003334:	9d84b03a 	or	r2,r19,r22
 2003338:	1000fc1e 	bne	r2,zero,200372c <___vfprintf_internal_r+0x1298>
 200333c:	0039883a 	mov	fp,zero
 2003340:	00800084 	movi	r2,2
 2003344:	10803fcc 	andi	r2,r2,255
 2003348:	00c00044 	movi	r3,1
 200334c:	10c20f26 	beq	r2,r3,2003b8c <___vfprintf_internal_r+0x16f8>
 2003350:	00c00084 	movi	r3,2
 2003354:	10fd3326 	beq	r2,r3,2002824 <__alt_data_end+0xff002824>
 2003358:	003e0b06 	br	2002b88 <__alt_data_end+0xff002b88>
 200335c:	d8c02017 	ldw	r3,128(sp)
 2003360:	003e7106 	br	2002d28 <__alt_data_end+0xff002d28>
 2003364:	00801944 	movi	r2,101
 2003368:	14407e0e 	bge	r2,r17,2003564 <___vfprintf_internal_r+0x10d0>
 200336c:	d9003617 	ldw	r4,216(sp)
 2003370:	d9403817 	ldw	r5,224(sp)
 2003374:	000d883a 	mov	r6,zero
 2003378:	000f883a 	mov	r7,zero
 200337c:	d8c03c15 	stw	r3,240(sp)
 2003380:	da003d15 	stw	r8,244(sp)
 2003384:	200dbd40 	call	200dbd4 <__eqdf2>
 2003388:	d8c03c17 	ldw	r3,240(sp)
 200338c:	da003d17 	ldw	r8,244(sp)
 2003390:	1000f71e 	bne	r2,zero,2003770 <___vfprintf_internal_r+0x12dc>
 2003394:	d8801f17 	ldw	r2,124(sp)
 2003398:	01008074 	movhi	r4,513
 200339c:	21087704 	addi	r4,r4,8668
 20033a0:	18c00044 	addi	r3,r3,1
 20033a4:	10800044 	addi	r2,r2,1
 20033a8:	41000015 	stw	r4,0(r8)
 20033ac:	01000044 	movi	r4,1
 20033b0:	41000115 	stw	r4,4(r8)
 20033b4:	d8c02015 	stw	r3,128(sp)
 20033b8:	d8801f15 	stw	r2,124(sp)
 20033bc:	010001c4 	movi	r4,7
 20033c0:	2082b816 	blt	r4,r2,2003ea4 <___vfprintf_internal_r+0x1a10>
 20033c4:	42000204 	addi	r8,r8,8
 20033c8:	d8802617 	ldw	r2,152(sp)
 20033cc:	d9403317 	ldw	r5,204(sp)
 20033d0:	11400216 	blt	r2,r5,20033dc <___vfprintf_internal_r+0xf48>
 20033d4:	9080004c 	andi	r2,r18,1
 20033d8:	103eb326 	beq	r2,zero,2002ea8 <__alt_data_end+0xff002ea8>
 20033dc:	d8803717 	ldw	r2,220(sp)
 20033e0:	d9003417 	ldw	r4,208(sp)
 20033e4:	d9403717 	ldw	r5,220(sp)
 20033e8:	1887883a 	add	r3,r3,r2
 20033ec:	d8801f17 	ldw	r2,124(sp)
 20033f0:	41000015 	stw	r4,0(r8)
 20033f4:	41400115 	stw	r5,4(r8)
 20033f8:	10800044 	addi	r2,r2,1
 20033fc:	d8c02015 	stw	r3,128(sp)
 2003400:	d8801f15 	stw	r2,124(sp)
 2003404:	010001c4 	movi	r4,7
 2003408:	20832916 	blt	r4,r2,20040b0 <___vfprintf_internal_r+0x1c1c>
 200340c:	42000204 	addi	r8,r8,8
 2003410:	d8803317 	ldw	r2,204(sp)
 2003414:	143fffc4 	addi	r16,r2,-1
 2003418:	043ea30e 	bge	zero,r16,2002ea8 <__alt_data_end+0xff002ea8>
 200341c:	04400404 	movi	r17,16
 2003420:	d8801f17 	ldw	r2,124(sp)
 2003424:	8c00880e 	bge	r17,r16,2003648 <___vfprintf_internal_r+0x11b4>
 2003428:	01408074 	movhi	r5,513
 200342c:	29487784 	addi	r5,r5,8670
 2003430:	d9402c15 	stw	r5,176(sp)
 2003434:	058001c4 	movi	r22,7
 2003438:	dcc02d17 	ldw	r19,180(sp)
 200343c:	00000306 	br	200344c <___vfprintf_internal_r+0xfb8>
 2003440:	42000204 	addi	r8,r8,8
 2003444:	843ffc04 	addi	r16,r16,-16
 2003448:	8c00820e 	bge	r17,r16,2003654 <___vfprintf_internal_r+0x11c0>
 200344c:	18c00404 	addi	r3,r3,16
 2003450:	10800044 	addi	r2,r2,1
 2003454:	45000015 	stw	r20,0(r8)
 2003458:	44400115 	stw	r17,4(r8)
 200345c:	d8c02015 	stw	r3,128(sp)
 2003460:	d8801f15 	stw	r2,124(sp)
 2003464:	b0bff60e 	bge	r22,r2,2003440 <__alt_data_end+0xff003440>
 2003468:	d9801e04 	addi	r6,sp,120
 200346c:	b80b883a 	mov	r5,r23
 2003470:	9809883a 	mov	r4,r19
 2003474:	2009c740 	call	2009c74 <__sprint_r>
 2003478:	103d0a1e 	bne	r2,zero,20028a4 <__alt_data_end+0xff0028a4>
 200347c:	d8c02017 	ldw	r3,128(sp)
 2003480:	d8801f17 	ldw	r2,124(sp)
 2003484:	da000404 	addi	r8,sp,16
 2003488:	003fee06 	br	2003444 <__alt_data_end+0xff003444>
 200348c:	d9403117 	ldw	r5,196(sp)
 2003490:	d8802917 	ldw	r2,164(sp)
 2003494:	28adc83a 	sub	r22,r5,r2
 2003498:	05be410e 	bge	zero,r22,2002da0 <__alt_data_end+0xff002da0>
 200349c:	07000404 	movi	fp,16
 20034a0:	d8801f17 	ldw	r2,124(sp)
 20034a4:	e5838f0e 	bge	fp,r22,20042e4 <___vfprintf_internal_r+0x1e50>
 20034a8:	01408074 	movhi	r5,513
 20034ac:	29487784 	addi	r5,r5,8670
 20034b0:	dc403015 	stw	r17,192(sp)
 20034b4:	d9402c15 	stw	r5,176(sp)
 20034b8:	b023883a 	mov	r17,r22
 20034bc:	04c001c4 	movi	r19,7
 20034c0:	a82d883a 	mov	r22,r21
 20034c4:	902b883a 	mov	r21,r18
 20034c8:	8025883a 	mov	r18,r16
 20034cc:	dc002d17 	ldw	r16,180(sp)
 20034d0:	00000306 	br	20034e0 <___vfprintf_internal_r+0x104c>
 20034d4:	8c7ffc04 	addi	r17,r17,-16
 20034d8:	42000204 	addi	r8,r8,8
 20034dc:	e440110e 	bge	fp,r17,2003524 <___vfprintf_internal_r+0x1090>
 20034e0:	18c00404 	addi	r3,r3,16
 20034e4:	10800044 	addi	r2,r2,1
 20034e8:	45000015 	stw	r20,0(r8)
 20034ec:	47000115 	stw	fp,4(r8)
 20034f0:	d8c02015 	stw	r3,128(sp)
 20034f4:	d8801f15 	stw	r2,124(sp)
 20034f8:	98bff60e 	bge	r19,r2,20034d4 <__alt_data_end+0xff0034d4>
 20034fc:	d9801e04 	addi	r6,sp,120
 2003500:	b80b883a 	mov	r5,r23
 2003504:	8009883a 	mov	r4,r16
 2003508:	2009c740 	call	2009c74 <__sprint_r>
 200350c:	103ce51e 	bne	r2,zero,20028a4 <__alt_data_end+0xff0028a4>
 2003510:	8c7ffc04 	addi	r17,r17,-16
 2003514:	d8c02017 	ldw	r3,128(sp)
 2003518:	d8801f17 	ldw	r2,124(sp)
 200351c:	da000404 	addi	r8,sp,16
 2003520:	e47fef16 	blt	fp,r17,20034e0 <__alt_data_end+0xff0034e0>
 2003524:	9021883a 	mov	r16,r18
 2003528:	a825883a 	mov	r18,r21
 200352c:	b02b883a 	mov	r21,r22
 2003530:	882d883a 	mov	r22,r17
 2003534:	dc403017 	ldw	r17,192(sp)
 2003538:	d9002c17 	ldw	r4,176(sp)
 200353c:	1d87883a 	add	r3,r3,r22
 2003540:	10800044 	addi	r2,r2,1
 2003544:	41000015 	stw	r4,0(r8)
 2003548:	45800115 	stw	r22,4(r8)
 200354c:	d8c02015 	stw	r3,128(sp)
 2003550:	d8801f15 	stw	r2,124(sp)
 2003554:	010001c4 	movi	r4,7
 2003558:	20818e16 	blt	r4,r2,2003b94 <___vfprintf_internal_r+0x1700>
 200355c:	42000204 	addi	r8,r8,8
 2003560:	003e0f06 	br	2002da0 <__alt_data_end+0xff002da0>
 2003564:	d9403317 	ldw	r5,204(sp)
 2003568:	00800044 	movi	r2,1
 200356c:	18c00044 	addi	r3,r3,1
 2003570:	1141530e 	bge	r2,r5,2003ac0 <___vfprintf_internal_r+0x162c>
 2003574:	dc401f17 	ldw	r17,124(sp)
 2003578:	00800044 	movi	r2,1
 200357c:	40800115 	stw	r2,4(r8)
 2003580:	8c400044 	addi	r17,r17,1
 2003584:	44000015 	stw	r16,0(r8)
 2003588:	d8c02015 	stw	r3,128(sp)
 200358c:	dc401f15 	stw	r17,124(sp)
 2003590:	008001c4 	movi	r2,7
 2003594:	14416b16 	blt	r2,r17,2003b44 <___vfprintf_internal_r+0x16b0>
 2003598:	42000204 	addi	r8,r8,8
 200359c:	d8803717 	ldw	r2,220(sp)
 20035a0:	d9003417 	ldw	r4,208(sp)
 20035a4:	8c400044 	addi	r17,r17,1
 20035a8:	10c7883a 	add	r3,r2,r3
 20035ac:	40800115 	stw	r2,4(r8)
 20035b0:	41000015 	stw	r4,0(r8)
 20035b4:	d8c02015 	stw	r3,128(sp)
 20035b8:	dc401f15 	stw	r17,124(sp)
 20035bc:	008001c4 	movi	r2,7
 20035c0:	14416916 	blt	r2,r17,2003b68 <___vfprintf_internal_r+0x16d4>
 20035c4:	45800204 	addi	r22,r8,8
 20035c8:	d9003617 	ldw	r4,216(sp)
 20035cc:	d9403817 	ldw	r5,224(sp)
 20035d0:	000d883a 	mov	r6,zero
 20035d4:	000f883a 	mov	r7,zero
 20035d8:	d8c03c15 	stw	r3,240(sp)
 20035dc:	200dbd40 	call	200dbd4 <__eqdf2>
 20035e0:	d8c03c17 	ldw	r3,240(sp)
 20035e4:	1000bc26 	beq	r2,zero,20038d8 <___vfprintf_internal_r+0x1444>
 20035e8:	d9403317 	ldw	r5,204(sp)
 20035ec:	84000044 	addi	r16,r16,1
 20035f0:	8c400044 	addi	r17,r17,1
 20035f4:	28bfffc4 	addi	r2,r5,-1
 20035f8:	1887883a 	add	r3,r3,r2
 20035fc:	b0800115 	stw	r2,4(r22)
 2003600:	b4000015 	stw	r16,0(r22)
 2003604:	d8c02015 	stw	r3,128(sp)
 2003608:	dc401f15 	stw	r17,124(sp)
 200360c:	008001c4 	movi	r2,7
 2003610:	14414316 	blt	r2,r17,2003b20 <___vfprintf_internal_r+0x168c>
 2003614:	b5800204 	addi	r22,r22,8
 2003618:	d9003a17 	ldw	r4,232(sp)
 200361c:	df0022c4 	addi	fp,sp,139
 2003620:	8c400044 	addi	r17,r17,1
 2003624:	20c7883a 	add	r3,r4,r3
 2003628:	b7000015 	stw	fp,0(r22)
 200362c:	b1000115 	stw	r4,4(r22)
 2003630:	d8c02015 	stw	r3,128(sp)
 2003634:	dc401f15 	stw	r17,124(sp)
 2003638:	008001c4 	movi	r2,7
 200363c:	14400e16 	blt	r2,r17,2003678 <___vfprintf_internal_r+0x11e4>
 2003640:	b2000204 	addi	r8,r22,8
 2003644:	003e1806 	br	2002ea8 <__alt_data_end+0xff002ea8>
 2003648:	01008074 	movhi	r4,513
 200364c:	21087784 	addi	r4,r4,8670
 2003650:	d9002c15 	stw	r4,176(sp)
 2003654:	d9002c17 	ldw	r4,176(sp)
 2003658:	1c07883a 	add	r3,r3,r16
 200365c:	44000115 	stw	r16,4(r8)
 2003660:	41000015 	stw	r4,0(r8)
 2003664:	10800044 	addi	r2,r2,1
 2003668:	d8c02015 	stw	r3,128(sp)
 200366c:	d8801f15 	stw	r2,124(sp)
 2003670:	010001c4 	movi	r4,7
 2003674:	20be0b0e 	bge	r4,r2,2002ea4 <__alt_data_end+0xff002ea4>
 2003678:	d9002d17 	ldw	r4,180(sp)
 200367c:	d9801e04 	addi	r6,sp,120
 2003680:	b80b883a 	mov	r5,r23
 2003684:	2009c740 	call	2009c74 <__sprint_r>
 2003688:	103c861e 	bne	r2,zero,20028a4 <__alt_data_end+0xff0028a4>
 200368c:	d8c02017 	ldw	r3,128(sp)
 2003690:	da000404 	addi	r8,sp,16
 2003694:	003e0406 	br	2002ea8 <__alt_data_end+0xff002ea8>
 2003698:	d9002d17 	ldw	r4,180(sp)
 200369c:	d9801e04 	addi	r6,sp,120
 20036a0:	b80b883a 	mov	r5,r23
 20036a4:	2009c740 	call	2009c74 <__sprint_r>
 20036a8:	103e3b26 	beq	r2,zero,2002f98 <__alt_data_end+0xff002f98>
 20036ac:	003c7d06 	br	20028a4 <__alt_data_end+0xff0028a4>
 20036b0:	d9002d17 	ldw	r4,180(sp)
 20036b4:	d9801e04 	addi	r6,sp,120
 20036b8:	b80b883a 	mov	r5,r23
 20036bc:	2009c740 	call	2009c74 <__sprint_r>
 20036c0:	103c781e 	bne	r2,zero,20028a4 <__alt_data_end+0xff0028a4>
 20036c4:	d8c02017 	ldw	r3,128(sp)
 20036c8:	da000404 	addi	r8,sp,16
 20036cc:	003de906 	br	2002e74 <__alt_data_end+0xff002e74>
 20036d0:	d9002d17 	ldw	r4,180(sp)
 20036d4:	d9801e04 	addi	r6,sp,120
 20036d8:	b80b883a 	mov	r5,r23
 20036dc:	2009c740 	call	2009c74 <__sprint_r>
 20036e0:	103c701e 	bne	r2,zero,20028a4 <__alt_data_end+0xff0028a4>
 20036e4:	d8c02017 	ldw	r3,128(sp)
 20036e8:	da000404 	addi	r8,sp,16
 20036ec:	003d9b06 	br	2002d5c <__alt_data_end+0xff002d5c>
 20036f0:	d9002d17 	ldw	r4,180(sp)
 20036f4:	d9801e04 	addi	r6,sp,120
 20036f8:	b80b883a 	mov	r5,r23
 20036fc:	2009c740 	call	2009c74 <__sprint_r>
 2003700:	103c681e 	bne	r2,zero,20028a4 <__alt_data_end+0xff0028a4>
 2003704:	d8c02017 	ldw	r3,128(sp)
 2003708:	da000404 	addi	r8,sp,16
 200370c:	003da106 	br	2002d94 <__alt_data_end+0xff002d94>
 2003710:	d9402a17 	ldw	r5,168(sp)
 2003714:	d8002785 	stb	zero,158(sp)
 2003718:	283f0616 	blt	r5,zero,2003334 <__alt_data_end+0xff003334>
 200371c:	00ffdfc4 	movi	r3,-129
 2003720:	9d84b03a 	or	r2,r19,r22
 2003724:	90e4703a 	and	r18,r18,r3
 2003728:	103c3b26 	beq	r2,zero,2002818 <__alt_data_end+0xff002818>
 200372c:	0039883a 	mov	fp,zero
 2003730:	003e5806 	br	2003094 <__alt_data_end+0xff003094>
 2003734:	9080040c 	andi	r2,r18,16
 2003738:	1001b326 	beq	r2,zero,2003e08 <___vfprintf_internal_r+0x1974>
 200373c:	d8c02e17 	ldw	r3,184(sp)
 2003740:	d9002a17 	ldw	r4,168(sp)
 2003744:	d8002785 	stb	zero,158(sp)
 2003748:	18800104 	addi	r2,r3,4
 200374c:	1cc00017 	ldw	r19,0(r3)
 2003750:	002d883a 	mov	r22,zero
 2003754:	2001b516 	blt	r4,zero,2003e2c <___vfprintf_internal_r+0x1998>
 2003758:	00ffdfc4 	movi	r3,-129
 200375c:	d8802e15 	stw	r2,184(sp)
 2003760:	90e4703a 	and	r18,r18,r3
 2003764:	983d0526 	beq	r19,zero,2002b7c <__alt_data_end+0xff002b7c>
 2003768:	0039883a 	mov	fp,zero
 200376c:	003d0806 	br	2002b90 <__alt_data_end+0xff002b90>
 2003770:	dc402617 	ldw	r17,152(sp)
 2003774:	0441d30e 	bge	zero,r17,2003ec4 <___vfprintf_internal_r+0x1a30>
 2003778:	dc403217 	ldw	r17,200(sp)
 200377c:	d8803317 	ldw	r2,204(sp)
 2003780:	1440010e 	bge	r2,r17,2003788 <___vfprintf_internal_r+0x12f4>
 2003784:	1023883a 	mov	r17,r2
 2003788:	04400a0e 	bge	zero,r17,20037b4 <___vfprintf_internal_r+0x1320>
 200378c:	d8801f17 	ldw	r2,124(sp)
 2003790:	1c47883a 	add	r3,r3,r17
 2003794:	44000015 	stw	r16,0(r8)
 2003798:	10800044 	addi	r2,r2,1
 200379c:	44400115 	stw	r17,4(r8)
 20037a0:	d8c02015 	stw	r3,128(sp)
 20037a4:	d8801f15 	stw	r2,124(sp)
 20037a8:	010001c4 	movi	r4,7
 20037ac:	20826516 	blt	r4,r2,2004144 <___vfprintf_internal_r+0x1cb0>
 20037b0:	42000204 	addi	r8,r8,8
 20037b4:	88026116 	blt	r17,zero,200413c <___vfprintf_internal_r+0x1ca8>
 20037b8:	d9003217 	ldw	r4,200(sp)
 20037bc:	2463c83a 	sub	r17,r4,r17
 20037c0:	04407b0e 	bge	zero,r17,20039b0 <___vfprintf_internal_r+0x151c>
 20037c4:	05800404 	movi	r22,16
 20037c8:	d8801f17 	ldw	r2,124(sp)
 20037cc:	b4419d0e 	bge	r22,r17,2003e44 <___vfprintf_internal_r+0x19b0>
 20037d0:	01008074 	movhi	r4,513
 20037d4:	21087784 	addi	r4,r4,8670
 20037d8:	d9002c15 	stw	r4,176(sp)
 20037dc:	070001c4 	movi	fp,7
 20037e0:	dcc02d17 	ldw	r19,180(sp)
 20037e4:	00000306 	br	20037f4 <___vfprintf_internal_r+0x1360>
 20037e8:	42000204 	addi	r8,r8,8
 20037ec:	8c7ffc04 	addi	r17,r17,-16
 20037f0:	b441970e 	bge	r22,r17,2003e50 <___vfprintf_internal_r+0x19bc>
 20037f4:	18c00404 	addi	r3,r3,16
 20037f8:	10800044 	addi	r2,r2,1
 20037fc:	45000015 	stw	r20,0(r8)
 2003800:	45800115 	stw	r22,4(r8)
 2003804:	d8c02015 	stw	r3,128(sp)
 2003808:	d8801f15 	stw	r2,124(sp)
 200380c:	e0bff60e 	bge	fp,r2,20037e8 <__alt_data_end+0xff0037e8>
 2003810:	d9801e04 	addi	r6,sp,120
 2003814:	b80b883a 	mov	r5,r23
 2003818:	9809883a 	mov	r4,r19
 200381c:	2009c740 	call	2009c74 <__sprint_r>
 2003820:	103c201e 	bne	r2,zero,20028a4 <__alt_data_end+0xff0028a4>
 2003824:	d8c02017 	ldw	r3,128(sp)
 2003828:	d8801f17 	ldw	r2,124(sp)
 200382c:	da000404 	addi	r8,sp,16
 2003830:	003fee06 	br	20037ec <__alt_data_end+0xff0037ec>
 2003834:	d9002d17 	ldw	r4,180(sp)
 2003838:	d9801e04 	addi	r6,sp,120
 200383c:	b80b883a 	mov	r5,r23
 2003840:	2009c740 	call	2009c74 <__sprint_r>
 2003844:	103c171e 	bne	r2,zero,20028a4 <__alt_data_end+0xff0028a4>
 2003848:	d8c02017 	ldw	r3,128(sp)
 200384c:	df002787 	ldb	fp,158(sp)
 2003850:	da000404 	addi	r8,sp,16
 2003854:	003d3406 	br	2002d28 <__alt_data_end+0xff002d28>
 2003858:	9080040c 	andi	r2,r18,16
 200385c:	10016126 	beq	r2,zero,2003de4 <___vfprintf_internal_r+0x1950>
 2003860:	d9402e17 	ldw	r5,184(sp)
 2003864:	2cc00017 	ldw	r19,0(r5)
 2003868:	29400104 	addi	r5,r5,4
 200386c:	d9402e15 	stw	r5,184(sp)
 2003870:	982dd7fa 	srai	r22,r19,31
 2003874:	b005883a 	mov	r2,r22
 2003878:	003c5a06 	br	20029e4 <__alt_data_end+0xff0029e4>
 200387c:	9080040c 	andi	r2,r18,16
 2003880:	10003526 	beq	r2,zero,2003958 <___vfprintf_internal_r+0x14c4>
 2003884:	d8c02e17 	ldw	r3,184(sp)
 2003888:	d9002a17 	ldw	r4,168(sp)
 200388c:	d8002785 	stb	zero,158(sp)
 2003890:	18800104 	addi	r2,r3,4
 2003894:	1cc00017 	ldw	r19,0(r3)
 2003898:	002d883a 	mov	r22,zero
 200389c:	20003716 	blt	r4,zero,200397c <___vfprintf_internal_r+0x14e8>
 20038a0:	00ffdfc4 	movi	r3,-129
 20038a4:	d8802e15 	stw	r2,184(sp)
 20038a8:	90e4703a 	and	r18,r18,r3
 20038ac:	0039883a 	mov	fp,zero
 20038b0:	983dd426 	beq	r19,zero,2003004 <__alt_data_end+0xff003004>
 20038b4:	00800244 	movi	r2,9
 20038b8:	14fc5336 	bltu	r2,r19,2002a08 <__alt_data_end+0xff002a08>
 20038bc:	d8c02817 	ldw	r3,160(sp)
 20038c0:	dc001dc4 	addi	r16,sp,119
 20038c4:	9cc00c04 	addi	r19,r19,48
 20038c8:	1c07c83a 	sub	r3,r3,r16
 20038cc:	dcc01dc5 	stb	r19,119(sp)
 20038d0:	d8c02b15 	stw	r3,172(sp)
 20038d4:	003cc606 	br	2002bf0 <__alt_data_end+0xff002bf0>
 20038d8:	d8803317 	ldw	r2,204(sp)
 20038dc:	143fffc4 	addi	r16,r2,-1
 20038e0:	043f4d0e 	bge	zero,r16,2003618 <__alt_data_end+0xff003618>
 20038e4:	07000404 	movi	fp,16
 20038e8:	e400810e 	bge	fp,r16,2003af0 <___vfprintf_internal_r+0x165c>
 20038ec:	01408074 	movhi	r5,513
 20038f0:	29487784 	addi	r5,r5,8670
 20038f4:	d9402c15 	stw	r5,176(sp)
 20038f8:	01c001c4 	movi	r7,7
 20038fc:	dcc02d17 	ldw	r19,180(sp)
 2003900:	00000306 	br	2003910 <___vfprintf_internal_r+0x147c>
 2003904:	b5800204 	addi	r22,r22,8
 2003908:	843ffc04 	addi	r16,r16,-16
 200390c:	e4007b0e 	bge	fp,r16,2003afc <___vfprintf_internal_r+0x1668>
 2003910:	18c00404 	addi	r3,r3,16
 2003914:	8c400044 	addi	r17,r17,1
 2003918:	b5000015 	stw	r20,0(r22)
 200391c:	b7000115 	stw	fp,4(r22)
 2003920:	d8c02015 	stw	r3,128(sp)
 2003924:	dc401f15 	stw	r17,124(sp)
 2003928:	3c7ff60e 	bge	r7,r17,2003904 <__alt_data_end+0xff003904>
 200392c:	d9801e04 	addi	r6,sp,120
 2003930:	b80b883a 	mov	r5,r23
 2003934:	9809883a 	mov	r4,r19
 2003938:	d9c03c15 	stw	r7,240(sp)
 200393c:	2009c740 	call	2009c74 <__sprint_r>
 2003940:	d9c03c17 	ldw	r7,240(sp)
 2003944:	103bd71e 	bne	r2,zero,20028a4 <__alt_data_end+0xff0028a4>
 2003948:	d8c02017 	ldw	r3,128(sp)
 200394c:	dc401f17 	ldw	r17,124(sp)
 2003950:	dd800404 	addi	r22,sp,16
 2003954:	003fec06 	br	2003908 <__alt_data_end+0xff003908>
 2003958:	9080100c 	andi	r2,r18,64
 200395c:	d8002785 	stb	zero,158(sp)
 2003960:	10010e26 	beq	r2,zero,2003d9c <___vfprintf_internal_r+0x1908>
 2003964:	d9402e17 	ldw	r5,184(sp)
 2003968:	d8c02a17 	ldw	r3,168(sp)
 200396c:	002d883a 	mov	r22,zero
 2003970:	28800104 	addi	r2,r5,4
 2003974:	2cc0000b 	ldhu	r19,0(r5)
 2003978:	183fc90e 	bge	r3,zero,20038a0 <__alt_data_end+0xff0038a0>
 200397c:	d8802e15 	stw	r2,184(sp)
 2003980:	0039883a 	mov	fp,zero
 2003984:	9d84b03a 	or	r2,r19,r22
 2003988:	103c1e1e 	bne	r2,zero,2002a04 <__alt_data_end+0xff002a04>
 200398c:	00800044 	movi	r2,1
 2003990:	003e6c06 	br	2003344 <__alt_data_end+0xff003344>
 2003994:	d9002d17 	ldw	r4,180(sp)
 2003998:	d9801e04 	addi	r6,sp,120
 200399c:	b80b883a 	mov	r5,r23
 20039a0:	2009c740 	call	2009c74 <__sprint_r>
 20039a4:	103bbf1e 	bne	r2,zero,20028a4 <__alt_data_end+0xff0028a4>
 20039a8:	d8c02017 	ldw	r3,128(sp)
 20039ac:	da000404 	addi	r8,sp,16
 20039b0:	d9003217 	ldw	r4,200(sp)
 20039b4:	d8802617 	ldw	r2,152(sp)
 20039b8:	d9403317 	ldw	r5,204(sp)
 20039bc:	8123883a 	add	r17,r16,r4
 20039c0:	11400216 	blt	r2,r5,20039cc <___vfprintf_internal_r+0x1538>
 20039c4:	9100004c 	andi	r4,r18,1
 20039c8:	20000d26 	beq	r4,zero,2003a00 <___vfprintf_internal_r+0x156c>
 20039cc:	d9003717 	ldw	r4,220(sp)
 20039d0:	d9403417 	ldw	r5,208(sp)
 20039d4:	1907883a 	add	r3,r3,r4
 20039d8:	d9001f17 	ldw	r4,124(sp)
 20039dc:	41400015 	stw	r5,0(r8)
 20039e0:	d9403717 	ldw	r5,220(sp)
 20039e4:	21000044 	addi	r4,r4,1
 20039e8:	d8c02015 	stw	r3,128(sp)
 20039ec:	41400115 	stw	r5,4(r8)
 20039f0:	d9001f15 	stw	r4,124(sp)
 20039f4:	014001c4 	movi	r5,7
 20039f8:	2901e816 	blt	r5,r4,200419c <___vfprintf_internal_r+0x1d08>
 20039fc:	42000204 	addi	r8,r8,8
 2003a00:	d9003317 	ldw	r4,204(sp)
 2003a04:	8121883a 	add	r16,r16,r4
 2003a08:	2085c83a 	sub	r2,r4,r2
 2003a0c:	8461c83a 	sub	r16,r16,r17
 2003a10:	1400010e 	bge	r2,r16,2003a18 <___vfprintf_internal_r+0x1584>
 2003a14:	1021883a 	mov	r16,r2
 2003a18:	04000a0e 	bge	zero,r16,2003a44 <___vfprintf_internal_r+0x15b0>
 2003a1c:	d9001f17 	ldw	r4,124(sp)
 2003a20:	1c07883a 	add	r3,r3,r16
 2003a24:	44400015 	stw	r17,0(r8)
 2003a28:	21000044 	addi	r4,r4,1
 2003a2c:	44000115 	stw	r16,4(r8)
 2003a30:	d8c02015 	stw	r3,128(sp)
 2003a34:	d9001f15 	stw	r4,124(sp)
 2003a38:	014001c4 	movi	r5,7
 2003a3c:	2901fb16 	blt	r5,r4,200422c <___vfprintf_internal_r+0x1d98>
 2003a40:	42000204 	addi	r8,r8,8
 2003a44:	8001f716 	blt	r16,zero,2004224 <___vfprintf_internal_r+0x1d90>
 2003a48:	1421c83a 	sub	r16,r2,r16
 2003a4c:	043d160e 	bge	zero,r16,2002ea8 <__alt_data_end+0xff002ea8>
 2003a50:	04400404 	movi	r17,16
 2003a54:	d8801f17 	ldw	r2,124(sp)
 2003a58:	8c3efb0e 	bge	r17,r16,2003648 <__alt_data_end+0xff003648>
 2003a5c:	01408074 	movhi	r5,513
 2003a60:	29487784 	addi	r5,r5,8670
 2003a64:	d9402c15 	stw	r5,176(sp)
 2003a68:	058001c4 	movi	r22,7
 2003a6c:	dcc02d17 	ldw	r19,180(sp)
 2003a70:	00000306 	br	2003a80 <___vfprintf_internal_r+0x15ec>
 2003a74:	42000204 	addi	r8,r8,8
 2003a78:	843ffc04 	addi	r16,r16,-16
 2003a7c:	8c3ef50e 	bge	r17,r16,2003654 <__alt_data_end+0xff003654>
 2003a80:	18c00404 	addi	r3,r3,16
 2003a84:	10800044 	addi	r2,r2,1
 2003a88:	45000015 	stw	r20,0(r8)
 2003a8c:	44400115 	stw	r17,4(r8)
 2003a90:	d8c02015 	stw	r3,128(sp)
 2003a94:	d8801f15 	stw	r2,124(sp)
 2003a98:	b0bff60e 	bge	r22,r2,2003a74 <__alt_data_end+0xff003a74>
 2003a9c:	d9801e04 	addi	r6,sp,120
 2003aa0:	b80b883a 	mov	r5,r23
 2003aa4:	9809883a 	mov	r4,r19
 2003aa8:	2009c740 	call	2009c74 <__sprint_r>
 2003aac:	103b7d1e 	bne	r2,zero,20028a4 <__alt_data_end+0xff0028a4>
 2003ab0:	d8c02017 	ldw	r3,128(sp)
 2003ab4:	d8801f17 	ldw	r2,124(sp)
 2003ab8:	da000404 	addi	r8,sp,16
 2003abc:	003fee06 	br	2003a78 <__alt_data_end+0xff003a78>
 2003ac0:	9088703a 	and	r4,r18,r2
 2003ac4:	203eab1e 	bne	r4,zero,2003574 <__alt_data_end+0xff003574>
 2003ac8:	dc401f17 	ldw	r17,124(sp)
 2003acc:	40800115 	stw	r2,4(r8)
 2003ad0:	44000015 	stw	r16,0(r8)
 2003ad4:	8c400044 	addi	r17,r17,1
 2003ad8:	d8c02015 	stw	r3,128(sp)
 2003adc:	dc401f15 	stw	r17,124(sp)
 2003ae0:	008001c4 	movi	r2,7
 2003ae4:	14400e16 	blt	r2,r17,2003b20 <___vfprintf_internal_r+0x168c>
 2003ae8:	45800204 	addi	r22,r8,8
 2003aec:	003eca06 	br	2003618 <__alt_data_end+0xff003618>
 2003af0:	01008074 	movhi	r4,513
 2003af4:	21087784 	addi	r4,r4,8670
 2003af8:	d9002c15 	stw	r4,176(sp)
 2003afc:	d8802c17 	ldw	r2,176(sp)
 2003b00:	1c07883a 	add	r3,r3,r16
 2003b04:	8c400044 	addi	r17,r17,1
 2003b08:	b0800015 	stw	r2,0(r22)
 2003b0c:	b4000115 	stw	r16,4(r22)
 2003b10:	d8c02015 	stw	r3,128(sp)
 2003b14:	dc401f15 	stw	r17,124(sp)
 2003b18:	008001c4 	movi	r2,7
 2003b1c:	147ebd0e 	bge	r2,r17,2003614 <__alt_data_end+0xff003614>
 2003b20:	d9002d17 	ldw	r4,180(sp)
 2003b24:	d9801e04 	addi	r6,sp,120
 2003b28:	b80b883a 	mov	r5,r23
 2003b2c:	2009c740 	call	2009c74 <__sprint_r>
 2003b30:	103b5c1e 	bne	r2,zero,20028a4 <__alt_data_end+0xff0028a4>
 2003b34:	d8c02017 	ldw	r3,128(sp)
 2003b38:	dc401f17 	ldw	r17,124(sp)
 2003b3c:	dd800404 	addi	r22,sp,16
 2003b40:	003eb506 	br	2003618 <__alt_data_end+0xff003618>
 2003b44:	d9002d17 	ldw	r4,180(sp)
 2003b48:	d9801e04 	addi	r6,sp,120
 2003b4c:	b80b883a 	mov	r5,r23
 2003b50:	2009c740 	call	2009c74 <__sprint_r>
 2003b54:	103b531e 	bne	r2,zero,20028a4 <__alt_data_end+0xff0028a4>
 2003b58:	d8c02017 	ldw	r3,128(sp)
 2003b5c:	dc401f17 	ldw	r17,124(sp)
 2003b60:	da000404 	addi	r8,sp,16
 2003b64:	003e8d06 	br	200359c <__alt_data_end+0xff00359c>
 2003b68:	d9002d17 	ldw	r4,180(sp)
 2003b6c:	d9801e04 	addi	r6,sp,120
 2003b70:	b80b883a 	mov	r5,r23
 2003b74:	2009c740 	call	2009c74 <__sprint_r>
 2003b78:	103b4a1e 	bne	r2,zero,20028a4 <__alt_data_end+0xff0028a4>
 2003b7c:	d8c02017 	ldw	r3,128(sp)
 2003b80:	dc401f17 	ldw	r17,124(sp)
 2003b84:	dd800404 	addi	r22,sp,16
 2003b88:	003e8f06 	br	20035c8 <__alt_data_end+0xff0035c8>
 2003b8c:	0027883a 	mov	r19,zero
 2003b90:	003f4a06 	br	20038bc <__alt_data_end+0xff0038bc>
 2003b94:	d9002d17 	ldw	r4,180(sp)
 2003b98:	d9801e04 	addi	r6,sp,120
 2003b9c:	b80b883a 	mov	r5,r23
 2003ba0:	2009c740 	call	2009c74 <__sprint_r>
 2003ba4:	103b3f1e 	bne	r2,zero,20028a4 <__alt_data_end+0xff0028a4>
 2003ba8:	d8c02017 	ldw	r3,128(sp)
 2003bac:	da000404 	addi	r8,sp,16
 2003bb0:	003c7b06 	br	2002da0 <__alt_data_end+0xff002da0>
 2003bb4:	d9402a17 	ldw	r5,168(sp)
 2003bb8:	04e7c83a 	sub	r19,zero,r19
 2003bbc:	07000b44 	movi	fp,45
 2003bc0:	9804c03a 	cmpne	r2,r19,zero
 2003bc4:	05adc83a 	sub	r22,zero,r22
 2003bc8:	df002785 	stb	fp,158(sp)
 2003bcc:	b0adc83a 	sub	r22,r22,r2
 2003bd0:	28017b16 	blt	r5,zero,20041c0 <___vfprintf_internal_r+0x1d2c>
 2003bd4:	00bfdfc4 	movi	r2,-129
 2003bd8:	90a4703a 	and	r18,r18,r2
 2003bdc:	003b8906 	br	2002a04 <__alt_data_end+0xff002a04>
 2003be0:	d9003617 	ldw	r4,216(sp)
 2003be4:	d9403817 	ldw	r5,224(sp)
 2003be8:	da003d15 	stw	r8,244(sp)
 2003bec:	20098980 	call	2009898 <__fpclassifyd>
 2003bf0:	da003d17 	ldw	r8,244(sp)
 2003bf4:	1000f026 	beq	r2,zero,2003fb8 <___vfprintf_internal_r+0x1b24>
 2003bf8:	d9002a17 	ldw	r4,168(sp)
 2003bfc:	05bff7c4 	movi	r22,-33
 2003c00:	00bfffc4 	movi	r2,-1
 2003c04:	8dac703a 	and	r22,r17,r22
 2003c08:	20820026 	beq	r4,r2,200440c <___vfprintf_internal_r+0x1f78>
 2003c0c:	008011c4 	movi	r2,71
 2003c10:	b081f726 	beq	r22,r2,20043f0 <___vfprintf_internal_r+0x1f5c>
 2003c14:	d9003817 	ldw	r4,224(sp)
 2003c18:	90c04014 	ori	r3,r18,256
 2003c1c:	d8c02c15 	stw	r3,176(sp)
 2003c20:	20021516 	blt	r4,zero,2004478 <___vfprintf_internal_r+0x1fe4>
 2003c24:	dcc03817 	ldw	r19,224(sp)
 2003c28:	d8002905 	stb	zero,164(sp)
 2003c2c:	00801984 	movi	r2,102
 2003c30:	8881f926 	beq	r17,r2,2004418 <___vfprintf_internal_r+0x1f84>
 2003c34:	00801184 	movi	r2,70
 2003c38:	88821c26 	beq	r17,r2,20044ac <___vfprintf_internal_r+0x2018>
 2003c3c:	00801144 	movi	r2,69
 2003c40:	b081ef26 	beq	r22,r2,2004400 <___vfprintf_internal_r+0x1f6c>
 2003c44:	d8c02a17 	ldw	r3,168(sp)
 2003c48:	d8802104 	addi	r2,sp,132
 2003c4c:	d8800315 	stw	r2,12(sp)
 2003c50:	d9403617 	ldw	r5,216(sp)
 2003c54:	d8802504 	addi	r2,sp,148
 2003c58:	d9002d17 	ldw	r4,180(sp)
 2003c5c:	d8800215 	stw	r2,8(sp)
 2003c60:	d8802604 	addi	r2,sp,152
 2003c64:	d8c00015 	stw	r3,0(sp)
 2003c68:	d8800115 	stw	r2,4(sp)
 2003c6c:	01c00084 	movi	r7,2
 2003c70:	980d883a 	mov	r6,r19
 2003c74:	d8c03c15 	stw	r3,240(sp)
 2003c78:	da003d15 	stw	r8,244(sp)
 2003c7c:	2004bc40 	call	2004bc4 <_dtoa_r>
 2003c80:	1021883a 	mov	r16,r2
 2003c84:	008019c4 	movi	r2,103
 2003c88:	d8c03c17 	ldw	r3,240(sp)
 2003c8c:	da003d17 	ldw	r8,244(sp)
 2003c90:	88817126 	beq	r17,r2,2004258 <___vfprintf_internal_r+0x1dc4>
 2003c94:	008011c4 	movi	r2,71
 2003c98:	88829126 	beq	r17,r2,20046e0 <___vfprintf_internal_r+0x224c>
 2003c9c:	80f9883a 	add	fp,r16,r3
 2003ca0:	d9003617 	ldw	r4,216(sp)
 2003ca4:	000d883a 	mov	r6,zero
 2003ca8:	000f883a 	mov	r7,zero
 2003cac:	980b883a 	mov	r5,r19
 2003cb0:	da003d15 	stw	r8,244(sp)
 2003cb4:	200dbd40 	call	200dbd4 <__eqdf2>
 2003cb8:	da003d17 	ldw	r8,244(sp)
 2003cbc:	10018d26 	beq	r2,zero,20042f4 <___vfprintf_internal_r+0x1e60>
 2003cc0:	d8802117 	ldw	r2,132(sp)
 2003cc4:	1700062e 	bgeu	r2,fp,2003ce0 <___vfprintf_internal_r+0x184c>
 2003cc8:	01000c04 	movi	r4,48
 2003ccc:	10c00044 	addi	r3,r2,1
 2003cd0:	d8c02115 	stw	r3,132(sp)
 2003cd4:	11000005 	stb	r4,0(r2)
 2003cd8:	d8802117 	ldw	r2,132(sp)
 2003cdc:	173ffb36 	bltu	r2,fp,2003ccc <__alt_data_end+0xff003ccc>
 2003ce0:	1405c83a 	sub	r2,r2,r16
 2003ce4:	d8803315 	stw	r2,204(sp)
 2003ce8:	008011c4 	movi	r2,71
 2003cec:	b0817626 	beq	r22,r2,20042c8 <___vfprintf_internal_r+0x1e34>
 2003cf0:	00801944 	movi	r2,101
 2003cf4:	1442800e 	bge	r2,r17,20046f8 <___vfprintf_internal_r+0x2264>
 2003cf8:	d8c02617 	ldw	r3,152(sp)
 2003cfc:	00801984 	movi	r2,102
 2003d00:	d8c03215 	stw	r3,200(sp)
 2003d04:	8881fe26 	beq	r17,r2,2004500 <___vfprintf_internal_r+0x206c>
 2003d08:	d8c03217 	ldw	r3,200(sp)
 2003d0c:	d9003317 	ldw	r4,204(sp)
 2003d10:	1901dd16 	blt	r3,r4,2004488 <___vfprintf_internal_r+0x1ff4>
 2003d14:	9480004c 	andi	r18,r18,1
 2003d18:	90022b1e 	bne	r18,zero,20045c8 <___vfprintf_internal_r+0x2134>
 2003d1c:	1805883a 	mov	r2,r3
 2003d20:	18028316 	blt	r3,zero,2004730 <___vfprintf_internal_r+0x229c>
 2003d24:	d8c03217 	ldw	r3,200(sp)
 2003d28:	044019c4 	movi	r17,103
 2003d2c:	d8c02b15 	stw	r3,172(sp)
 2003d30:	df002907 	ldb	fp,164(sp)
 2003d34:	e001531e 	bne	fp,zero,2004284 <___vfprintf_internal_r+0x1df0>
 2003d38:	df002783 	ldbu	fp,158(sp)
 2003d3c:	d8802915 	stw	r2,164(sp)
 2003d40:	dc802c17 	ldw	r18,176(sp)
 2003d44:	d8002a15 	stw	zero,168(sp)
 2003d48:	003baf06 	br	2002c08 <__alt_data_end+0xff002c08>
 2003d4c:	d8c02e17 	ldw	r3,184(sp)
 2003d50:	d9002e17 	ldw	r4,184(sp)
 2003d54:	d9402e17 	ldw	r5,184(sp)
 2003d58:	18c00017 	ldw	r3,0(r3)
 2003d5c:	21000117 	ldw	r4,4(r4)
 2003d60:	29400204 	addi	r5,r5,8
 2003d64:	d8c03615 	stw	r3,216(sp)
 2003d68:	d9003815 	stw	r4,224(sp)
 2003d6c:	d9402e15 	stw	r5,184(sp)
 2003d70:	003b5006 	br	2002ab4 <__alt_data_end+0xff002ab4>
 2003d74:	ac400007 	ldb	r17,0(r21)
 2003d78:	003a2806 	br	200261c <__alt_data_end+0xff00261c>
 2003d7c:	9080100c 	andi	r2,r18,64
 2003d80:	1000a826 	beq	r2,zero,2004024 <___vfprintf_internal_r+0x1b90>
 2003d84:	d8c02e17 	ldw	r3,184(sp)
 2003d88:	002d883a 	mov	r22,zero
 2003d8c:	1cc0000b 	ldhu	r19,0(r3)
 2003d90:	18c00104 	addi	r3,r3,4
 2003d94:	d8c02e15 	stw	r3,184(sp)
 2003d98:	003caf06 	br	2003058 <__alt_data_end+0xff003058>
 2003d9c:	d9002e17 	ldw	r4,184(sp)
 2003da0:	d9402a17 	ldw	r5,168(sp)
 2003da4:	002d883a 	mov	r22,zero
 2003da8:	20800104 	addi	r2,r4,4
 2003dac:	24c00017 	ldw	r19,0(r4)
 2003db0:	283ebb0e 	bge	r5,zero,20038a0 <__alt_data_end+0xff0038a0>
 2003db4:	003ef106 	br	200397c <__alt_data_end+0xff00397c>
 2003db8:	9080040c 	andi	r2,r18,16
 2003dbc:	1000921e 	bne	r2,zero,2004008 <___vfprintf_internal_r+0x1b74>
 2003dc0:	9480100c 	andi	r18,r18,64
 2003dc4:	90013926 	beq	r18,zero,20042ac <___vfprintf_internal_r+0x1e18>
 2003dc8:	d9402e17 	ldw	r5,184(sp)
 2003dcc:	d8c02f17 	ldw	r3,188(sp)
 2003dd0:	28800017 	ldw	r2,0(r5)
 2003dd4:	29400104 	addi	r5,r5,4
 2003dd8:	d9402e15 	stw	r5,184(sp)
 2003ddc:	10c0000d 	sth	r3,0(r2)
 2003de0:	0039e406 	br	2002574 <__alt_data_end+0xff002574>
 2003de4:	9080100c 	andi	r2,r18,64
 2003de8:	10008026 	beq	r2,zero,2003fec <___vfprintf_internal_r+0x1b58>
 2003dec:	d8802e17 	ldw	r2,184(sp)
 2003df0:	14c0000f 	ldh	r19,0(r2)
 2003df4:	10800104 	addi	r2,r2,4
 2003df8:	d8802e15 	stw	r2,184(sp)
 2003dfc:	982dd7fa 	srai	r22,r19,31
 2003e00:	b005883a 	mov	r2,r22
 2003e04:	003af706 	br	20029e4 <__alt_data_end+0xff0029e4>
 2003e08:	9080100c 	andi	r2,r18,64
 2003e0c:	d8002785 	stb	zero,158(sp)
 2003e10:	10008a1e 	bne	r2,zero,200403c <___vfprintf_internal_r+0x1ba8>
 2003e14:	d9002e17 	ldw	r4,184(sp)
 2003e18:	d9402a17 	ldw	r5,168(sp)
 2003e1c:	002d883a 	mov	r22,zero
 2003e20:	20800104 	addi	r2,r4,4
 2003e24:	24c00017 	ldw	r19,0(r4)
 2003e28:	283e4b0e 	bge	r5,zero,2003758 <__alt_data_end+0xff003758>
 2003e2c:	9d86b03a 	or	r3,r19,r22
 2003e30:	d8802e15 	stw	r2,184(sp)
 2003e34:	183e4c1e 	bne	r3,zero,2003768 <__alt_data_end+0xff003768>
 2003e38:	0039883a 	mov	fp,zero
 2003e3c:	0005883a 	mov	r2,zero
 2003e40:	003d4006 	br	2003344 <__alt_data_end+0xff003344>
 2003e44:	01408074 	movhi	r5,513
 2003e48:	29487784 	addi	r5,r5,8670
 2003e4c:	d9402c15 	stw	r5,176(sp)
 2003e50:	d9402c17 	ldw	r5,176(sp)
 2003e54:	1c47883a 	add	r3,r3,r17
 2003e58:	10800044 	addi	r2,r2,1
 2003e5c:	41400015 	stw	r5,0(r8)
 2003e60:	44400115 	stw	r17,4(r8)
 2003e64:	d8c02015 	stw	r3,128(sp)
 2003e68:	d8801f15 	stw	r2,124(sp)
 2003e6c:	010001c4 	movi	r4,7
 2003e70:	20bec816 	blt	r4,r2,2003994 <__alt_data_end+0xff003994>
 2003e74:	42000204 	addi	r8,r8,8
 2003e78:	003ecd06 	br	20039b0 <__alt_data_end+0xff0039b0>
 2003e7c:	d9002a17 	ldw	r4,168(sp)
 2003e80:	d8002785 	stb	zero,158(sp)
 2003e84:	203d2d16 	blt	r4,zero,200333c <__alt_data_end+0xff00333c>
 2003e88:	00bfdfc4 	movi	r2,-129
 2003e8c:	90a4703a 	and	r18,r18,r2
 2003e90:	003a6106 	br	2002818 <__alt_data_end+0xff002818>
 2003e94:	01008074 	movhi	r4,513
 2003e98:	21087784 	addi	r4,r4,8670
 2003e9c:	d9002c15 	stw	r4,176(sp)
 2003ea0:	003bea06 	br	2002e4c <__alt_data_end+0xff002e4c>
 2003ea4:	d9002d17 	ldw	r4,180(sp)
 2003ea8:	d9801e04 	addi	r6,sp,120
 2003eac:	b80b883a 	mov	r5,r23
 2003eb0:	2009c740 	call	2009c74 <__sprint_r>
 2003eb4:	103a7b1e 	bne	r2,zero,20028a4 <__alt_data_end+0xff0028a4>
 2003eb8:	d8c02017 	ldw	r3,128(sp)
 2003ebc:	da000404 	addi	r8,sp,16
 2003ec0:	003d4106 	br	20033c8 <__alt_data_end+0xff0033c8>
 2003ec4:	d8801f17 	ldw	r2,124(sp)
 2003ec8:	01408074 	movhi	r5,513
 2003ecc:	01000044 	movi	r4,1
 2003ed0:	18c00044 	addi	r3,r3,1
 2003ed4:	10800044 	addi	r2,r2,1
 2003ed8:	29487704 	addi	r5,r5,8668
 2003edc:	41000115 	stw	r4,4(r8)
 2003ee0:	41400015 	stw	r5,0(r8)
 2003ee4:	d8c02015 	stw	r3,128(sp)
 2003ee8:	d8801f15 	stw	r2,124(sp)
 2003eec:	010001c4 	movi	r4,7
 2003ef0:	20805c16 	blt	r4,r2,2004064 <___vfprintf_internal_r+0x1bd0>
 2003ef4:	42000204 	addi	r8,r8,8
 2003ef8:	8800041e 	bne	r17,zero,2003f0c <___vfprintf_internal_r+0x1a78>
 2003efc:	d8803317 	ldw	r2,204(sp)
 2003f00:	1000021e 	bne	r2,zero,2003f0c <___vfprintf_internal_r+0x1a78>
 2003f04:	9080004c 	andi	r2,r18,1
 2003f08:	103be726 	beq	r2,zero,2002ea8 <__alt_data_end+0xff002ea8>
 2003f0c:	d9003717 	ldw	r4,220(sp)
 2003f10:	d8801f17 	ldw	r2,124(sp)
 2003f14:	d9403417 	ldw	r5,208(sp)
 2003f18:	20c7883a 	add	r3,r4,r3
 2003f1c:	10800044 	addi	r2,r2,1
 2003f20:	41000115 	stw	r4,4(r8)
 2003f24:	41400015 	stw	r5,0(r8)
 2003f28:	d8c02015 	stw	r3,128(sp)
 2003f2c:	d8801f15 	stw	r2,124(sp)
 2003f30:	010001c4 	movi	r4,7
 2003f34:	20812116 	blt	r4,r2,20043bc <___vfprintf_internal_r+0x1f28>
 2003f38:	42000204 	addi	r8,r8,8
 2003f3c:	0463c83a 	sub	r17,zero,r17
 2003f40:	0440730e 	bge	zero,r17,2004110 <___vfprintf_internal_r+0x1c7c>
 2003f44:	05800404 	movi	r22,16
 2003f48:	b440860e 	bge	r22,r17,2004164 <___vfprintf_internal_r+0x1cd0>
 2003f4c:	01408074 	movhi	r5,513
 2003f50:	29487784 	addi	r5,r5,8670
 2003f54:	d9402c15 	stw	r5,176(sp)
 2003f58:	070001c4 	movi	fp,7
 2003f5c:	dcc02d17 	ldw	r19,180(sp)
 2003f60:	00000306 	br	2003f70 <___vfprintf_internal_r+0x1adc>
 2003f64:	42000204 	addi	r8,r8,8
 2003f68:	8c7ffc04 	addi	r17,r17,-16
 2003f6c:	b440800e 	bge	r22,r17,2004170 <___vfprintf_internal_r+0x1cdc>
 2003f70:	18c00404 	addi	r3,r3,16
 2003f74:	10800044 	addi	r2,r2,1
 2003f78:	45000015 	stw	r20,0(r8)
 2003f7c:	45800115 	stw	r22,4(r8)
 2003f80:	d8c02015 	stw	r3,128(sp)
 2003f84:	d8801f15 	stw	r2,124(sp)
 2003f88:	e0bff60e 	bge	fp,r2,2003f64 <__alt_data_end+0xff003f64>
 2003f8c:	d9801e04 	addi	r6,sp,120
 2003f90:	b80b883a 	mov	r5,r23
 2003f94:	9809883a 	mov	r4,r19
 2003f98:	2009c740 	call	2009c74 <__sprint_r>
 2003f9c:	103a411e 	bne	r2,zero,20028a4 <__alt_data_end+0xff0028a4>
 2003fa0:	d8c02017 	ldw	r3,128(sp)
 2003fa4:	d8801f17 	ldw	r2,124(sp)
 2003fa8:	da000404 	addi	r8,sp,16
 2003fac:	003fee06 	br	2003f68 <__alt_data_end+0xff003f68>
 2003fb0:	00bfffc4 	movi	r2,-1
 2003fb4:	003a3f06 	br	20028b4 <__alt_data_end+0xff0028b4>
 2003fb8:	008011c4 	movi	r2,71
 2003fbc:	1440b816 	blt	r2,r17,20042a0 <___vfprintf_internal_r+0x1e0c>
 2003fc0:	04008074 	movhi	r16,513
 2003fc4:	84086904 	addi	r16,r16,8612
 2003fc8:	00c000c4 	movi	r3,3
 2003fcc:	00bfdfc4 	movi	r2,-129
 2003fd0:	d8c02915 	stw	r3,164(sp)
 2003fd4:	90a4703a 	and	r18,r18,r2
 2003fd8:	df002783 	ldbu	fp,158(sp)
 2003fdc:	d8c02b15 	stw	r3,172(sp)
 2003fe0:	d8002a15 	stw	zero,168(sp)
 2003fe4:	d8003215 	stw	zero,200(sp)
 2003fe8:	003b0706 	br	2002c08 <__alt_data_end+0xff002c08>
 2003fec:	d8c02e17 	ldw	r3,184(sp)
 2003ff0:	1cc00017 	ldw	r19,0(r3)
 2003ff4:	18c00104 	addi	r3,r3,4
 2003ff8:	d8c02e15 	stw	r3,184(sp)
 2003ffc:	982dd7fa 	srai	r22,r19,31
 2004000:	b005883a 	mov	r2,r22
 2004004:	003a7706 	br	20029e4 <__alt_data_end+0xff0029e4>
 2004008:	d8c02e17 	ldw	r3,184(sp)
 200400c:	d9002f17 	ldw	r4,188(sp)
 2004010:	18800017 	ldw	r2,0(r3)
 2004014:	18c00104 	addi	r3,r3,4
 2004018:	d8c02e15 	stw	r3,184(sp)
 200401c:	11000015 	stw	r4,0(r2)
 2004020:	00395406 	br	2002574 <__alt_data_end+0xff002574>
 2004024:	d9002e17 	ldw	r4,184(sp)
 2004028:	002d883a 	mov	r22,zero
 200402c:	24c00017 	ldw	r19,0(r4)
 2004030:	21000104 	addi	r4,r4,4
 2004034:	d9002e15 	stw	r4,184(sp)
 2004038:	003c0706 	br	2003058 <__alt_data_end+0xff003058>
 200403c:	d9402e17 	ldw	r5,184(sp)
 2004040:	d8c02a17 	ldw	r3,168(sp)
 2004044:	002d883a 	mov	r22,zero
 2004048:	28800104 	addi	r2,r5,4
 200404c:	2cc0000b 	ldhu	r19,0(r5)
 2004050:	183dc10e 	bge	r3,zero,2003758 <__alt_data_end+0xff003758>
 2004054:	003f7506 	br	2003e2c <__alt_data_end+0xff003e2c>
 2004058:	04008074 	movhi	r16,513
 200405c:	84086704 	addi	r16,r16,8604
 2004060:	003aa706 	br	2002b00 <__alt_data_end+0xff002b00>
 2004064:	d9002d17 	ldw	r4,180(sp)
 2004068:	d9801e04 	addi	r6,sp,120
 200406c:	b80b883a 	mov	r5,r23
 2004070:	2009c740 	call	2009c74 <__sprint_r>
 2004074:	103a0b1e 	bne	r2,zero,20028a4 <__alt_data_end+0xff0028a4>
 2004078:	dc402617 	ldw	r17,152(sp)
 200407c:	d8c02017 	ldw	r3,128(sp)
 2004080:	da000404 	addi	r8,sp,16
 2004084:	003f9c06 	br	2003ef8 <__alt_data_end+0xff003ef8>
 2004088:	ac400043 	ldbu	r17,1(r21)
 200408c:	84000814 	ori	r16,r16,32
 2004090:	ad400044 	addi	r21,r21,1
 2004094:	8c403fcc 	andi	r17,r17,255
 2004098:	8c40201c 	xori	r17,r17,128
 200409c:	8c7fe004 	addi	r17,r17,-128
 20040a0:	00395e06 	br	200261c <__alt_data_end+0xff00261c>
 20040a4:	d8c02e15 	stw	r3,184(sp)
 20040a8:	0039883a 	mov	fp,zero
 20040ac:	003e3506 	br	2003984 <__alt_data_end+0xff003984>
 20040b0:	d9002d17 	ldw	r4,180(sp)
 20040b4:	d9801e04 	addi	r6,sp,120
 20040b8:	b80b883a 	mov	r5,r23
 20040bc:	2009c740 	call	2009c74 <__sprint_r>
 20040c0:	1039f81e 	bne	r2,zero,20028a4 <__alt_data_end+0xff0028a4>
 20040c4:	d8c02017 	ldw	r3,128(sp)
 20040c8:	da000404 	addi	r8,sp,16
 20040cc:	003cd006 	br	2003410 <__alt_data_end+0xff003410>
 20040d0:	8009883a 	mov	r4,r16
 20040d4:	df003d15 	stw	fp,244(sp)
 20040d8:	20023fc0 	call	20023fc <strlen>
 20040dc:	d8802b15 	stw	r2,172(sp)
 20040e0:	da003d17 	ldw	r8,244(sp)
 20040e4:	103c200e 	bge	r2,zero,2003168 <__alt_data_end+0xff003168>
 20040e8:	0005883a 	mov	r2,zero
 20040ec:	003c1e06 	br	2003168 <__alt_data_end+0xff003168>
 20040f0:	d9002d17 	ldw	r4,180(sp)
 20040f4:	d9801e04 	addi	r6,sp,120
 20040f8:	b80b883a 	mov	r5,r23
 20040fc:	2009c740 	call	2009c74 <__sprint_r>
 2004100:	1039e81e 	bne	r2,zero,20028a4 <__alt_data_end+0xff0028a4>
 2004104:	d8c02017 	ldw	r3,128(sp)
 2004108:	d8801f17 	ldw	r2,124(sp)
 200410c:	da000404 	addi	r8,sp,16
 2004110:	d9403317 	ldw	r5,204(sp)
 2004114:	10800044 	addi	r2,r2,1
 2004118:	44000015 	stw	r16,0(r8)
 200411c:	28c7883a 	add	r3,r5,r3
 2004120:	003b5b06 	br	2002e90 <__alt_data_end+0xff002e90>
 2004124:	01008074 	movhi	r4,513
 2004128:	21087b84 	addi	r4,r4,8686
 200412c:	d9003515 	stw	r4,212(sp)
 2004130:	003af206 	br	2002cfc <__alt_data_end+0xff002cfc>
 2004134:	013fffc4 	movi	r4,-1
 2004138:	003a0806 	br	200295c <__alt_data_end+0xff00295c>
 200413c:	0023883a 	mov	r17,zero
 2004140:	003d9d06 	br	20037b8 <__alt_data_end+0xff0037b8>
 2004144:	d9002d17 	ldw	r4,180(sp)
 2004148:	d9801e04 	addi	r6,sp,120
 200414c:	b80b883a 	mov	r5,r23
 2004150:	2009c740 	call	2009c74 <__sprint_r>
 2004154:	1039d31e 	bne	r2,zero,20028a4 <__alt_data_end+0xff0028a4>
 2004158:	d8c02017 	ldw	r3,128(sp)
 200415c:	da000404 	addi	r8,sp,16
 2004160:	003d9406 	br	20037b4 <__alt_data_end+0xff0037b4>
 2004164:	01008074 	movhi	r4,513
 2004168:	21087784 	addi	r4,r4,8670
 200416c:	d9002c15 	stw	r4,176(sp)
 2004170:	d9002c17 	ldw	r4,176(sp)
 2004174:	1c47883a 	add	r3,r3,r17
 2004178:	10800044 	addi	r2,r2,1
 200417c:	41000015 	stw	r4,0(r8)
 2004180:	44400115 	stw	r17,4(r8)
 2004184:	d8c02015 	stw	r3,128(sp)
 2004188:	d8801f15 	stw	r2,124(sp)
 200418c:	010001c4 	movi	r4,7
 2004190:	20bfd716 	blt	r4,r2,20040f0 <__alt_data_end+0xff0040f0>
 2004194:	42000204 	addi	r8,r8,8
 2004198:	003fdd06 	br	2004110 <__alt_data_end+0xff004110>
 200419c:	d9002d17 	ldw	r4,180(sp)
 20041a0:	d9801e04 	addi	r6,sp,120
 20041a4:	b80b883a 	mov	r5,r23
 20041a8:	2009c740 	call	2009c74 <__sprint_r>
 20041ac:	1039bd1e 	bne	r2,zero,20028a4 <__alt_data_end+0xff0028a4>
 20041b0:	d8802617 	ldw	r2,152(sp)
 20041b4:	d8c02017 	ldw	r3,128(sp)
 20041b8:	da000404 	addi	r8,sp,16
 20041bc:	003e1006 	br	2003a00 <__alt_data_end+0xff003a00>
 20041c0:	00800044 	movi	r2,1
 20041c4:	10803fcc 	andi	r2,r2,255
 20041c8:	00c00044 	movi	r3,1
 20041cc:	10fa0d26 	beq	r2,r3,2002a04 <__alt_data_end+0xff002a04>
 20041d0:	00c00084 	movi	r3,2
 20041d4:	10fbaf26 	beq	r2,r3,2003094 <__alt_data_end+0xff003094>
 20041d8:	003a6d06 	br	2002b90 <__alt_data_end+0xff002b90>
 20041dc:	01008074 	movhi	r4,513
 20041e0:	21087b84 	addi	r4,r4,8686
 20041e4:	d9003515 	stw	r4,212(sp)
 20041e8:	003b5406 	br	2002f3c <__alt_data_end+0xff002f3c>
 20041ec:	d8802a17 	ldw	r2,168(sp)
 20041f0:	00c00184 	movi	r3,6
 20041f4:	1880012e 	bgeu	r3,r2,20041fc <___vfprintf_internal_r+0x1d68>
 20041f8:	1805883a 	mov	r2,r3
 20041fc:	d8802b15 	stw	r2,172(sp)
 2004200:	1000ef16 	blt	r2,zero,20045c0 <___vfprintf_internal_r+0x212c>
 2004204:	04008074 	movhi	r16,513
 2004208:	d8802915 	stw	r2,164(sp)
 200420c:	dcc02e15 	stw	r19,184(sp)
 2004210:	d8002a15 	stw	zero,168(sp)
 2004214:	d8003215 	stw	zero,200(sp)
 2004218:	84087504 	addi	r16,r16,8660
 200421c:	0039883a 	mov	fp,zero
 2004220:	003a8006 	br	2002c24 <__alt_data_end+0xff002c24>
 2004224:	0021883a 	mov	r16,zero
 2004228:	003e0706 	br	2003a48 <__alt_data_end+0xff003a48>
 200422c:	d9002d17 	ldw	r4,180(sp)
 2004230:	d9801e04 	addi	r6,sp,120
 2004234:	b80b883a 	mov	r5,r23
 2004238:	2009c740 	call	2009c74 <__sprint_r>
 200423c:	1039991e 	bne	r2,zero,20028a4 <__alt_data_end+0xff0028a4>
 2004240:	d8802617 	ldw	r2,152(sp)
 2004244:	d9403317 	ldw	r5,204(sp)
 2004248:	d8c02017 	ldw	r3,128(sp)
 200424c:	da000404 	addi	r8,sp,16
 2004250:	2885c83a 	sub	r2,r5,r2
 2004254:	003dfb06 	br	2003a44 <__alt_data_end+0xff003a44>
 2004258:	9080004c 	andi	r2,r18,1
 200425c:	103e8f1e 	bne	r2,zero,2003c9c <__alt_data_end+0xff003c9c>
 2004260:	d8802117 	ldw	r2,132(sp)
 2004264:	003e9e06 	br	2003ce0 <__alt_data_end+0xff003ce0>
 2004268:	1025883a 	mov	r18,r2
 200426c:	0039883a 	mov	fp,zero
 2004270:	00800084 	movi	r2,2
 2004274:	003fd306 	br	20041c4 <__alt_data_end+0xff0041c4>
 2004278:	07000b44 	movi	fp,45
 200427c:	df002785 	stb	fp,158(sp)
 2004280:	003a1b06 	br	2002af0 <__alt_data_end+0xff002af0>
 2004284:	00c00b44 	movi	r3,45
 2004288:	d8c02785 	stb	r3,158(sp)
 200428c:	d8802915 	stw	r2,164(sp)
 2004290:	dc802c17 	ldw	r18,176(sp)
 2004294:	d8002a15 	stw	zero,168(sp)
 2004298:	07000b44 	movi	fp,45
 200429c:	003a5e06 	br	2002c18 <__alt_data_end+0xff002c18>
 20042a0:	04008074 	movhi	r16,513
 20042a4:	84086a04 	addi	r16,r16,8616
 20042a8:	003f4706 	br	2003fc8 <__alt_data_end+0xff003fc8>
 20042ac:	d9002e17 	ldw	r4,184(sp)
 20042b0:	d9402f17 	ldw	r5,188(sp)
 20042b4:	20800017 	ldw	r2,0(r4)
 20042b8:	21000104 	addi	r4,r4,4
 20042bc:	d9002e15 	stw	r4,184(sp)
 20042c0:	11400015 	stw	r5,0(r2)
 20042c4:	0038ab06 	br	2002574 <__alt_data_end+0xff002574>
 20042c8:	dd802617 	ldw	r22,152(sp)
 20042cc:	00bfff44 	movi	r2,-3
 20042d0:	b0801c16 	blt	r22,r2,2004344 <___vfprintf_internal_r+0x1eb0>
 20042d4:	d9402a17 	ldw	r5,168(sp)
 20042d8:	2d801a16 	blt	r5,r22,2004344 <___vfprintf_internal_r+0x1eb0>
 20042dc:	dd803215 	stw	r22,200(sp)
 20042e0:	003e8906 	br	2003d08 <__alt_data_end+0xff003d08>
 20042e4:	01008074 	movhi	r4,513
 20042e8:	21087784 	addi	r4,r4,8670
 20042ec:	d9002c15 	stw	r4,176(sp)
 20042f0:	003c9106 	br	2003538 <__alt_data_end+0xff003538>
 20042f4:	e005883a 	mov	r2,fp
 20042f8:	003e7906 	br	2003ce0 <__alt_data_end+0xff003ce0>
 20042fc:	d9002a17 	ldw	r4,168(sp)
 2004300:	df002783 	ldbu	fp,158(sp)
 2004304:	dcc02e15 	stw	r19,184(sp)
 2004308:	d9002915 	stw	r4,164(sp)
 200430c:	d9002b15 	stw	r4,172(sp)
 2004310:	d8002a15 	stw	zero,168(sp)
 2004314:	d8003215 	stw	zero,200(sp)
 2004318:	003a3b06 	br	2002c08 <__alt_data_end+0xff002c08>
 200431c:	9080004c 	andi	r2,r18,1
 2004320:	0039883a 	mov	fp,zero
 2004324:	10000426 	beq	r2,zero,2004338 <___vfprintf_internal_r+0x1ea4>
 2004328:	00800c04 	movi	r2,48
 200432c:	dc001dc4 	addi	r16,sp,119
 2004330:	d8801dc5 	stb	r2,119(sp)
 2004334:	003b6406 	br	20030c8 <__alt_data_end+0xff0030c8>
 2004338:	d8002b15 	stw	zero,172(sp)
 200433c:	dc001e04 	addi	r16,sp,120
 2004340:	003a2b06 	br	2002bf0 <__alt_data_end+0xff002bf0>
 2004344:	8c7fff84 	addi	r17,r17,-2
 2004348:	b5bfffc4 	addi	r22,r22,-1
 200434c:	dd802615 	stw	r22,152(sp)
 2004350:	dc4022c5 	stb	r17,139(sp)
 2004354:	b000bf16 	blt	r22,zero,2004654 <___vfprintf_internal_r+0x21c0>
 2004358:	00800ac4 	movi	r2,43
 200435c:	d8802305 	stb	r2,140(sp)
 2004360:	00800244 	movi	r2,9
 2004364:	15807016 	blt	r2,r22,2004528 <___vfprintf_internal_r+0x2094>
 2004368:	00800c04 	movi	r2,48
 200436c:	b5800c04 	addi	r22,r22,48
 2004370:	d8802345 	stb	r2,141(sp)
 2004374:	dd802385 	stb	r22,142(sp)
 2004378:	d88023c4 	addi	r2,sp,143
 200437c:	df0022c4 	addi	fp,sp,139
 2004380:	d8c03317 	ldw	r3,204(sp)
 2004384:	1739c83a 	sub	fp,r2,fp
 2004388:	d9003317 	ldw	r4,204(sp)
 200438c:	e0c7883a 	add	r3,fp,r3
 2004390:	df003a15 	stw	fp,232(sp)
 2004394:	d8c02b15 	stw	r3,172(sp)
 2004398:	00800044 	movi	r2,1
 200439c:	1100b30e 	bge	r2,r4,200466c <___vfprintf_internal_r+0x21d8>
 20043a0:	d8c02b17 	ldw	r3,172(sp)
 20043a4:	18c00044 	addi	r3,r3,1
 20043a8:	d8c02b15 	stw	r3,172(sp)
 20043ac:	1805883a 	mov	r2,r3
 20043b0:	1800ac16 	blt	r3,zero,2004664 <___vfprintf_internal_r+0x21d0>
 20043b4:	d8003215 	stw	zero,200(sp)
 20043b8:	003e5d06 	br	2003d30 <__alt_data_end+0xff003d30>
 20043bc:	d9002d17 	ldw	r4,180(sp)
 20043c0:	d9801e04 	addi	r6,sp,120
 20043c4:	b80b883a 	mov	r5,r23
 20043c8:	2009c740 	call	2009c74 <__sprint_r>
 20043cc:	1039351e 	bne	r2,zero,20028a4 <__alt_data_end+0xff0028a4>
 20043d0:	dc402617 	ldw	r17,152(sp)
 20043d4:	d8c02017 	ldw	r3,128(sp)
 20043d8:	d8801f17 	ldw	r2,124(sp)
 20043dc:	da000404 	addi	r8,sp,16
 20043e0:	003ed606 	br	2003f3c <__alt_data_end+0xff003f3c>
 20043e4:	182b883a 	mov	r21,r3
 20043e8:	d8002a15 	stw	zero,168(sp)
 20043ec:	00388c06 	br	2002620 <__alt_data_end+0xff002620>
 20043f0:	d8802a17 	ldw	r2,168(sp)
 20043f4:	103e071e 	bne	r2,zero,2003c14 <__alt_data_end+0xff003c14>
 20043f8:	dc002a15 	stw	r16,168(sp)
 20043fc:	003e0506 	br	2003c14 <__alt_data_end+0xff003c14>
 2004400:	d9002a17 	ldw	r4,168(sp)
 2004404:	20c00044 	addi	r3,r4,1
 2004408:	003e0f06 	br	2003c48 <__alt_data_end+0xff003c48>
 200440c:	01400184 	movi	r5,6
 2004410:	d9402a15 	stw	r5,168(sp)
 2004414:	003dff06 	br	2003c14 <__alt_data_end+0xff003c14>
 2004418:	d8802104 	addi	r2,sp,132
 200441c:	d8800315 	stw	r2,12(sp)
 2004420:	d8802504 	addi	r2,sp,148
 2004424:	d8800215 	stw	r2,8(sp)
 2004428:	d8802604 	addi	r2,sp,152
 200442c:	d8800115 	stw	r2,4(sp)
 2004430:	d8802a17 	ldw	r2,168(sp)
 2004434:	d9403617 	ldw	r5,216(sp)
 2004438:	d9002d17 	ldw	r4,180(sp)
 200443c:	d8800015 	stw	r2,0(sp)
 2004440:	01c000c4 	movi	r7,3
 2004444:	980d883a 	mov	r6,r19
 2004448:	da003d15 	stw	r8,244(sp)
 200444c:	2004bc40 	call	2004bc4 <_dtoa_r>
 2004450:	d8c02a17 	ldw	r3,168(sp)
 2004454:	da003d17 	ldw	r8,244(sp)
 2004458:	1021883a 	mov	r16,r2
 200445c:	10f9883a 	add	fp,r2,r3
 2004460:	81000007 	ldb	r4,0(r16)
 2004464:	00800c04 	movi	r2,48
 2004468:	20805e26 	beq	r4,r2,20045e4 <___vfprintf_internal_r+0x2150>
 200446c:	d8c02617 	ldw	r3,152(sp)
 2004470:	e0f9883a 	add	fp,fp,r3
 2004474:	003e0a06 	br	2003ca0 <__alt_data_end+0xff003ca0>
 2004478:	00c00b44 	movi	r3,45
 200447c:	24e0003c 	xorhi	r19,r4,32768
 2004480:	d8c02905 	stb	r3,164(sp)
 2004484:	003de906 	br	2003c2c <__alt_data_end+0xff003c2c>
 2004488:	d8c03217 	ldw	r3,200(sp)
 200448c:	00c07a0e 	bge	zero,r3,2004678 <___vfprintf_internal_r+0x21e4>
 2004490:	00800044 	movi	r2,1
 2004494:	d9003317 	ldw	r4,204(sp)
 2004498:	1105883a 	add	r2,r2,r4
 200449c:	d8802b15 	stw	r2,172(sp)
 20044a0:	10004e16 	blt	r2,zero,20045dc <___vfprintf_internal_r+0x2148>
 20044a4:	044019c4 	movi	r17,103
 20044a8:	003e2106 	br	2003d30 <__alt_data_end+0xff003d30>
 20044ac:	d9002a17 	ldw	r4,168(sp)
 20044b0:	d8802104 	addi	r2,sp,132
 20044b4:	d8800315 	stw	r2,12(sp)
 20044b8:	d9000015 	stw	r4,0(sp)
 20044bc:	d8802504 	addi	r2,sp,148
 20044c0:	d9403617 	ldw	r5,216(sp)
 20044c4:	d9002d17 	ldw	r4,180(sp)
 20044c8:	d8800215 	stw	r2,8(sp)
 20044cc:	d8802604 	addi	r2,sp,152
 20044d0:	d8800115 	stw	r2,4(sp)
 20044d4:	01c000c4 	movi	r7,3
 20044d8:	980d883a 	mov	r6,r19
 20044dc:	da003d15 	stw	r8,244(sp)
 20044e0:	2004bc40 	call	2004bc4 <_dtoa_r>
 20044e4:	d8c02a17 	ldw	r3,168(sp)
 20044e8:	da003d17 	ldw	r8,244(sp)
 20044ec:	1021883a 	mov	r16,r2
 20044f0:	00801184 	movi	r2,70
 20044f4:	80f9883a 	add	fp,r16,r3
 20044f8:	88bfd926 	beq	r17,r2,2004460 <__alt_data_end+0xff004460>
 20044fc:	003de806 	br	2003ca0 <__alt_data_end+0xff003ca0>
 2004500:	d9002a17 	ldw	r4,168(sp)
 2004504:	00c04d0e 	bge	zero,r3,200463c <___vfprintf_internal_r+0x21a8>
 2004508:	2000441e 	bne	r4,zero,200461c <___vfprintf_internal_r+0x2188>
 200450c:	9480004c 	andi	r18,r18,1
 2004510:	9000421e 	bne	r18,zero,200461c <___vfprintf_internal_r+0x2188>
 2004514:	1805883a 	mov	r2,r3
 2004518:	18006f16 	blt	r3,zero,20046d8 <___vfprintf_internal_r+0x2244>
 200451c:	d8c03217 	ldw	r3,200(sp)
 2004520:	d8c02b15 	stw	r3,172(sp)
 2004524:	003e0206 	br	2003d30 <__alt_data_end+0xff003d30>
 2004528:	df0022c4 	addi	fp,sp,139
 200452c:	dc002a15 	stw	r16,168(sp)
 2004530:	4027883a 	mov	r19,r8
 2004534:	e021883a 	mov	r16,fp
 2004538:	b009883a 	mov	r4,r22
 200453c:	01400284 	movi	r5,10
 2004540:	200c8000 	call	200c800 <__modsi3>
 2004544:	10800c04 	addi	r2,r2,48
 2004548:	843fffc4 	addi	r16,r16,-1
 200454c:	b009883a 	mov	r4,r22
 2004550:	01400284 	movi	r5,10
 2004554:	80800005 	stb	r2,0(r16)
 2004558:	200c77c0 	call	200c77c <__divsi3>
 200455c:	102d883a 	mov	r22,r2
 2004560:	00800244 	movi	r2,9
 2004564:	15bff416 	blt	r2,r22,2004538 <__alt_data_end+0xff004538>
 2004568:	9811883a 	mov	r8,r19
 200456c:	b0800c04 	addi	r2,r22,48
 2004570:	8027883a 	mov	r19,r16
 2004574:	997fffc4 	addi	r5,r19,-1
 2004578:	98bfffc5 	stb	r2,-1(r19)
 200457c:	dc002a17 	ldw	r16,168(sp)
 2004580:	2f006d2e 	bgeu	r5,fp,2004738 <___vfprintf_internal_r+0x22a4>
 2004584:	d9c02384 	addi	r7,sp,142
 2004588:	3ccfc83a 	sub	r7,r7,r19
 200458c:	d9002344 	addi	r4,sp,141
 2004590:	e1cf883a 	add	r7,fp,r7
 2004594:	00000106 	br	200459c <___vfprintf_internal_r+0x2108>
 2004598:	28800003 	ldbu	r2,0(r5)
 200459c:	20800005 	stb	r2,0(r4)
 20045a0:	21000044 	addi	r4,r4,1
 20045a4:	29400044 	addi	r5,r5,1
 20045a8:	393ffb1e 	bne	r7,r4,2004598 <__alt_data_end+0xff004598>
 20045ac:	d8802304 	addi	r2,sp,140
 20045b0:	14c5c83a 	sub	r2,r2,r19
 20045b4:	d8c02344 	addi	r3,sp,141
 20045b8:	1885883a 	add	r2,r3,r2
 20045bc:	003f7006 	br	2004380 <__alt_data_end+0xff004380>
 20045c0:	0005883a 	mov	r2,zero
 20045c4:	003f0f06 	br	2004204 <__alt_data_end+0xff004204>
 20045c8:	d8c03217 	ldw	r3,200(sp)
 20045cc:	18c00044 	addi	r3,r3,1
 20045d0:	d8c02b15 	stw	r3,172(sp)
 20045d4:	1805883a 	mov	r2,r3
 20045d8:	183fb20e 	bge	r3,zero,20044a4 <__alt_data_end+0xff0044a4>
 20045dc:	0005883a 	mov	r2,zero
 20045e0:	003fb006 	br	20044a4 <__alt_data_end+0xff0044a4>
 20045e4:	d9003617 	ldw	r4,216(sp)
 20045e8:	000d883a 	mov	r6,zero
 20045ec:	000f883a 	mov	r7,zero
 20045f0:	980b883a 	mov	r5,r19
 20045f4:	d8c03c15 	stw	r3,240(sp)
 20045f8:	da003d15 	stw	r8,244(sp)
 20045fc:	200dbd40 	call	200dbd4 <__eqdf2>
 2004600:	d8c03c17 	ldw	r3,240(sp)
 2004604:	da003d17 	ldw	r8,244(sp)
 2004608:	103f9826 	beq	r2,zero,200446c <__alt_data_end+0xff00446c>
 200460c:	00800044 	movi	r2,1
 2004610:	10c7c83a 	sub	r3,r2,r3
 2004614:	d8c02615 	stw	r3,152(sp)
 2004618:	003f9506 	br	2004470 <__alt_data_end+0xff004470>
 200461c:	d9002a17 	ldw	r4,168(sp)
 2004620:	d8c03217 	ldw	r3,200(sp)
 2004624:	20800044 	addi	r2,r4,1
 2004628:	1885883a 	add	r2,r3,r2
 200462c:	d8802b15 	stw	r2,172(sp)
 2004630:	103dbf0e 	bge	r2,zero,2003d30 <__alt_data_end+0xff003d30>
 2004634:	0005883a 	mov	r2,zero
 2004638:	003dbd06 	br	2003d30 <__alt_data_end+0xff003d30>
 200463c:	2000201e 	bne	r4,zero,20046c0 <___vfprintf_internal_r+0x222c>
 2004640:	9480004c 	andi	r18,r18,1
 2004644:	90001e1e 	bne	r18,zero,20046c0 <___vfprintf_internal_r+0x222c>
 2004648:	00800044 	movi	r2,1
 200464c:	d8802b15 	stw	r2,172(sp)
 2004650:	003db706 	br	2003d30 <__alt_data_end+0xff003d30>
 2004654:	00800b44 	movi	r2,45
 2004658:	05adc83a 	sub	r22,zero,r22
 200465c:	d8802305 	stb	r2,140(sp)
 2004660:	003f3f06 	br	2004360 <__alt_data_end+0xff004360>
 2004664:	0005883a 	mov	r2,zero
 2004668:	003f5206 	br	20043b4 <__alt_data_end+0xff0043b4>
 200466c:	90a4703a 	and	r18,r18,r2
 2004670:	903f4e26 	beq	r18,zero,20043ac <__alt_data_end+0xff0043ac>
 2004674:	003f4a06 	br	20043a0 <__alt_data_end+0xff0043a0>
 2004678:	00800084 	movi	r2,2
 200467c:	10c5c83a 	sub	r2,r2,r3
 2004680:	003f8406 	br	2004494 <__alt_data_end+0xff004494>
 2004684:	d9402e17 	ldw	r5,184(sp)
 2004688:	d9002e17 	ldw	r4,184(sp)
 200468c:	ac400043 	ldbu	r17,1(r21)
 2004690:	29400017 	ldw	r5,0(r5)
 2004694:	20800104 	addi	r2,r4,4
 2004698:	d8802e15 	stw	r2,184(sp)
 200469c:	d9402a15 	stw	r5,168(sp)
 20046a0:	182b883a 	mov	r21,r3
 20046a4:	283e7b0e 	bge	r5,zero,2004094 <__alt_data_end+0xff004094>
 20046a8:	8c403fcc 	andi	r17,r17,255
 20046ac:	017fffc4 	movi	r5,-1
 20046b0:	8c40201c 	xori	r17,r17,128
 20046b4:	d9402a15 	stw	r5,168(sp)
 20046b8:	8c7fe004 	addi	r17,r17,-128
 20046bc:	0037d706 	br	200261c <__alt_data_end+0xff00261c>
 20046c0:	d8c02a17 	ldw	r3,168(sp)
 20046c4:	18c00084 	addi	r3,r3,2
 20046c8:	d8c02b15 	stw	r3,172(sp)
 20046cc:	1805883a 	mov	r2,r3
 20046d0:	183d970e 	bge	r3,zero,2003d30 <__alt_data_end+0xff003d30>
 20046d4:	003fd706 	br	2004634 <__alt_data_end+0xff004634>
 20046d8:	0005883a 	mov	r2,zero
 20046dc:	003f8f06 	br	200451c <__alt_data_end+0xff00451c>
 20046e0:	9080004c 	andi	r2,r18,1
 20046e4:	103f821e 	bne	r2,zero,20044f0 <__alt_data_end+0xff0044f0>
 20046e8:	d8802117 	ldw	r2,132(sp)
 20046ec:	1405c83a 	sub	r2,r2,r16
 20046f0:	d8803315 	stw	r2,204(sp)
 20046f4:	b47ef426 	beq	r22,r17,20042c8 <__alt_data_end+0xff0042c8>
 20046f8:	dd802617 	ldw	r22,152(sp)
 20046fc:	003f1206 	br	2004348 <__alt_data_end+0xff004348>
 2004700:	d8c02b03 	ldbu	r3,172(sp)
 2004704:	d8c02785 	stb	r3,158(sp)
 2004708:	0038df06 	br	2002a88 <__alt_data_end+0xff002a88>
 200470c:	d8c02b03 	ldbu	r3,172(sp)
 2004710:	d8c02785 	stb	r3,158(sp)
 2004714:	0038aa06 	br	20029c0 <__alt_data_end+0xff0029c0>
 2004718:	d8c02b03 	ldbu	r3,172(sp)
 200471c:	d8c02785 	stb	r3,158(sp)
 2004720:	003a4306 	br	2003030 <__alt_data_end+0xff003030>
 2004724:	d8c02b03 	ldbu	r3,172(sp)
 2004728:	d8c02785 	stb	r3,158(sp)
 200472c:	003af506 	br	2003304 <__alt_data_end+0xff003304>
 2004730:	0005883a 	mov	r2,zero
 2004734:	003d7b06 	br	2003d24 <__alt_data_end+0xff003d24>
 2004738:	d8802344 	addi	r2,sp,141
 200473c:	003f1006 	br	2004380 <__alt_data_end+0xff004380>
 2004740:	d8c02b03 	ldbu	r3,172(sp)
 2004744:	d8c02785 	stb	r3,158(sp)
 2004748:	0038fd06 	br	2002b40 <__alt_data_end+0xff002b40>
 200474c:	d8c02b03 	ldbu	r3,172(sp)
 2004750:	d8c02785 	stb	r3,158(sp)
 2004754:	003a9706 	br	20031b4 <__alt_data_end+0xff0031b4>
 2004758:	d8c02b03 	ldbu	r3,172(sp)
 200475c:	d8c02785 	stb	r3,158(sp)
 2004760:	003a1806 	br	2002fc4 <__alt_data_end+0xff002fc4>
 2004764:	d8c02b03 	ldbu	r3,172(sp)
 2004768:	d8c02785 	stb	r3,158(sp)
 200476c:	003abe06 	br	2003268 <__alt_data_end+0xff003268>

02004770 <__vfprintf_internal>:
 2004770:	00808074 	movhi	r2,513
 2004774:	108fd204 	addi	r2,r2,16200
 2004778:	300f883a 	mov	r7,r6
 200477c:	280d883a 	mov	r6,r5
 2004780:	200b883a 	mov	r5,r4
 2004784:	11000017 	ldw	r4,0(r2)
 2004788:	20024941 	jmpi	2002494 <___vfprintf_internal_r>

0200478c <__sbprintf>:
 200478c:	2880030b 	ldhu	r2,12(r5)
 2004790:	2ac01917 	ldw	r11,100(r5)
 2004794:	2a80038b 	ldhu	r10,14(r5)
 2004798:	2a400717 	ldw	r9,28(r5)
 200479c:	2a000917 	ldw	r8,36(r5)
 20047a0:	defee204 	addi	sp,sp,-1144
 20047a4:	00c10004 	movi	r3,1024
 20047a8:	dc011a15 	stw	r16,1128(sp)
 20047ac:	10bfff4c 	andi	r2,r2,65533
 20047b0:	2821883a 	mov	r16,r5
 20047b4:	d8cb883a 	add	r5,sp,r3
 20047b8:	dc811c15 	stw	r18,1136(sp)
 20047bc:	dc411b15 	stw	r17,1132(sp)
 20047c0:	dfc11d15 	stw	ra,1140(sp)
 20047c4:	2025883a 	mov	r18,r4
 20047c8:	d881030d 	sth	r2,1036(sp)
 20047cc:	dac11915 	stw	r11,1124(sp)
 20047d0:	da81038d 	sth	r10,1038(sp)
 20047d4:	da410715 	stw	r9,1052(sp)
 20047d8:	da010915 	stw	r8,1060(sp)
 20047dc:	dec10015 	stw	sp,1024(sp)
 20047e0:	dec10415 	stw	sp,1040(sp)
 20047e4:	d8c10215 	stw	r3,1032(sp)
 20047e8:	d8c10515 	stw	r3,1044(sp)
 20047ec:	d8010615 	stw	zero,1048(sp)
 20047f0:	20024940 	call	2002494 <___vfprintf_internal_r>
 20047f4:	1023883a 	mov	r17,r2
 20047f8:	10000416 	blt	r2,zero,200480c <__sbprintf+0x80>
 20047fc:	d9410004 	addi	r5,sp,1024
 2004800:	9009883a 	mov	r4,r18
 2004804:	20064680 	call	2006468 <_fflush_r>
 2004808:	10000d1e 	bne	r2,zero,2004840 <__sbprintf+0xb4>
 200480c:	d881030b 	ldhu	r2,1036(sp)
 2004810:	1080100c 	andi	r2,r2,64
 2004814:	10000326 	beq	r2,zero,2004824 <__sbprintf+0x98>
 2004818:	8080030b 	ldhu	r2,12(r16)
 200481c:	10801014 	ori	r2,r2,64
 2004820:	8080030d 	sth	r2,12(r16)
 2004824:	8805883a 	mov	r2,r17
 2004828:	dfc11d17 	ldw	ra,1140(sp)
 200482c:	dc811c17 	ldw	r18,1136(sp)
 2004830:	dc411b17 	ldw	r17,1132(sp)
 2004834:	dc011a17 	ldw	r16,1128(sp)
 2004838:	dec11e04 	addi	sp,sp,1144
 200483c:	f800283a 	ret
 2004840:	047fffc4 	movi	r17,-1
 2004844:	003ff106 	br	200480c <__alt_data_end+0xff00480c>

02004848 <__swsetup_r>:
 2004848:	00808074 	movhi	r2,513
 200484c:	defffd04 	addi	sp,sp,-12
 2004850:	108fd204 	addi	r2,r2,16200
 2004854:	dc400115 	stw	r17,4(sp)
 2004858:	2023883a 	mov	r17,r4
 200485c:	11000017 	ldw	r4,0(r2)
 2004860:	dc000015 	stw	r16,0(sp)
 2004864:	dfc00215 	stw	ra,8(sp)
 2004868:	2821883a 	mov	r16,r5
 200486c:	20000226 	beq	r4,zero,2004878 <__swsetup_r+0x30>
 2004870:	20800e17 	ldw	r2,56(r4)
 2004874:	10003126 	beq	r2,zero,200493c <__swsetup_r+0xf4>
 2004878:	8080030b 	ldhu	r2,12(r16)
 200487c:	10c0020c 	andi	r3,r2,8
 2004880:	1009883a 	mov	r4,r2
 2004884:	18000f26 	beq	r3,zero,20048c4 <__swsetup_r+0x7c>
 2004888:	80c00417 	ldw	r3,16(r16)
 200488c:	18001526 	beq	r3,zero,20048e4 <__swsetup_r+0x9c>
 2004890:	1100004c 	andi	r4,r2,1
 2004894:	20001c1e 	bne	r4,zero,2004908 <__swsetup_r+0xc0>
 2004898:	1080008c 	andi	r2,r2,2
 200489c:	1000291e 	bne	r2,zero,2004944 <__swsetup_r+0xfc>
 20048a0:	80800517 	ldw	r2,20(r16)
 20048a4:	80800215 	stw	r2,8(r16)
 20048a8:	18001c26 	beq	r3,zero,200491c <__swsetup_r+0xd4>
 20048ac:	0005883a 	mov	r2,zero
 20048b0:	dfc00217 	ldw	ra,8(sp)
 20048b4:	dc400117 	ldw	r17,4(sp)
 20048b8:	dc000017 	ldw	r16,0(sp)
 20048bc:	dec00304 	addi	sp,sp,12
 20048c0:	f800283a 	ret
 20048c4:	2080040c 	andi	r2,r4,16
 20048c8:	10002e26 	beq	r2,zero,2004984 <__swsetup_r+0x13c>
 20048cc:	2080010c 	andi	r2,r4,4
 20048d0:	10001e1e 	bne	r2,zero,200494c <__swsetup_r+0x104>
 20048d4:	80c00417 	ldw	r3,16(r16)
 20048d8:	20800214 	ori	r2,r4,8
 20048dc:	8080030d 	sth	r2,12(r16)
 20048e0:	183feb1e 	bne	r3,zero,2004890 <__alt_data_end+0xff004890>
 20048e4:	1100a00c 	andi	r4,r2,640
 20048e8:	01408004 	movi	r5,512
 20048ec:	217fe826 	beq	r4,r5,2004890 <__alt_data_end+0xff004890>
 20048f0:	800b883a 	mov	r5,r16
 20048f4:	8809883a 	mov	r4,r17
 20048f8:	20074040 	call	2007404 <__smakebuf_r>
 20048fc:	8080030b 	ldhu	r2,12(r16)
 2004900:	80c00417 	ldw	r3,16(r16)
 2004904:	003fe206 	br	2004890 <__alt_data_end+0xff004890>
 2004908:	80800517 	ldw	r2,20(r16)
 200490c:	80000215 	stw	zero,8(r16)
